ARM GAS  C:\Users\Estudi\AppData\Local\Temp\ccjMGKtz.s 			page 1


   1              		.cpu cortex-m7
   2              		.eabi_attribute 28, 1
   3              		.eabi_attribute 20, 1
   4              		.eabi_attribute 21, 1
   5              		.eabi_attribute 23, 3
   6              		.eabi_attribute 24, 1
   7              		.eabi_attribute 25, 1
   8              		.eabi_attribute 26, 1
   9              		.eabi_attribute 30, 2
  10              		.eabi_attribute 34, 1
  11              		.eabi_attribute 18, 4
  12              		.file	"MultiFX.cpp"
  13              		.text
  14              	.Ltext0:
  15              		.cfi_sections	.debug_frame
  16              		.section	.text._ZN5daisy9ParameterD2Ev,"axG",%progbits,_ZN5daisy9ParameterD5Ev,comdat
  17              		.align	1
  18              		.p2align 2,,3
  19              		.weak	_ZN5daisy9ParameterD2Ev
  20              		.arch armv7e-m
  21              		.syntax unified
  22              		.thumb
  23              		.thumb_func
  24              		.fpu fpv5-d16
  26              	_ZN5daisy9ParameterD2Ev:
  27              	.LVL0:
  28              	.LFB1654:
  29              		.file 1 "../../DaisyExamples/libDaisy//src/hid/parameter.h"
   1:../../DaisyExamples/libDaisy//src/hid/parameter.h **** #pragma once
   2:../../DaisyExamples/libDaisy//src/hid/parameter.h **** #include <stdint.h>
   3:../../DaisyExamples/libDaisy//src/hid/parameter.h **** #include "hid/ctrl.h"
   4:../../DaisyExamples/libDaisy//src/hid/parameter.h **** 
   5:../../DaisyExamples/libDaisy//src/hid/parameter.h **** namespace daisy
   6:../../DaisyExamples/libDaisy//src/hid/parameter.h **** {
   7:../../DaisyExamples/libDaisy//src/hid/parameter.h **** /** @addtogroup controls
   8:../../DaisyExamples/libDaisy//src/hid/parameter.h ****     @{
   9:../../DaisyExamples/libDaisy//src/hid/parameter.h **** */
  10:../../DaisyExamples/libDaisy//src/hid/parameter.h **** 
  11:../../DaisyExamples/libDaisy//src/hid/parameter.h **** /**      Simple parameter mapping tool that takes a 0-1 input from an hid_ctrl. */
  12:../../DaisyExamples/libDaisy//src/hid/parameter.h **** class Parameter
  13:../../DaisyExamples/libDaisy//src/hid/parameter.h **** {
  14:../../DaisyExamples/libDaisy//src/hid/parameter.h ****   public:
  15:../../DaisyExamples/libDaisy//src/hid/parameter.h ****     /** Curves are applied to the output signal */
  16:../../DaisyExamples/libDaisy//src/hid/parameter.h ****     enum Curve
  17:../../DaisyExamples/libDaisy//src/hid/parameter.h ****     {
  18:../../DaisyExamples/libDaisy//src/hid/parameter.h ****         LINEAR,      /**< Linear curve */
  19:../../DaisyExamples/libDaisy//src/hid/parameter.h ****         EXPONENTIAL, /**< Exponential curve */
  20:../../DaisyExamples/libDaisy//src/hid/parameter.h ****         LOGARITHMIC, /**<  Logarithmic curve */
  21:../../DaisyExamples/libDaisy//src/hid/parameter.h ****         CUBE,        /**< Cubic curve */
  22:../../DaisyExamples/libDaisy//src/hid/parameter.h ****         LAST,        /**< Final enum element. */
  23:../../DaisyExamples/libDaisy//src/hid/parameter.h ****     };
  24:../../DaisyExamples/libDaisy//src/hid/parameter.h ****     /** Constructor */
  25:../../DaisyExamples/libDaisy//src/hid/parameter.h ****     Parameter() {}
  26:../../DaisyExamples/libDaisy//src/hid/parameter.h ****     /** Destructor */
  27:../../DaisyExamples/libDaisy//src/hid/parameter.h ****     ~Parameter() {}
  30              		.loc 1 27 5 view -0
  31              		.cfi_startproc
ARM GAS  C:\Users\Estudi\AppData\Local\Temp\ccjMGKtz.s 			page 2


  32              		@ args = 0, pretend = 0, frame = 0
  33              		@ frame_needed = 0, uses_anonymous_args = 0
  34              		@ link register save eliminated.
  35              	.LBB368:
  36              	.LBI368:
  37              		.file 2 "../../DaisyExamples/libDaisy//src/hid/ctrl.h"
   1:../../DaisyExamples/libDaisy//src/hid/ctrl.h **** #pragma once
   2:../../DaisyExamples/libDaisy//src/hid/ctrl.h **** #ifndef DSY_KNOB_H
   3:../../DaisyExamples/libDaisy//src/hid/ctrl.h **** #define DSY_KNOB_H /**< & */
   4:../../DaisyExamples/libDaisy//src/hid/ctrl.h **** #include <stdint.h>
   5:../../DaisyExamples/libDaisy//src/hid/ctrl.h **** 
   6:../../DaisyExamples/libDaisy//src/hid/ctrl.h **** #ifdef __cplusplus
   7:../../DaisyExamples/libDaisy//src/hid/ctrl.h **** namespace daisy
   8:../../DaisyExamples/libDaisy//src/hid/ctrl.h **** {
   9:../../DaisyExamples/libDaisy//src/hid/ctrl.h **** /**
  10:../../DaisyExamples/libDaisy//src/hid/ctrl.h ****     @brief Hardware Interface for control inputs \n 
  11:../../DaisyExamples/libDaisy//src/hid/ctrl.h ****     Primarily designed for ADC input controls such as \n 
  12:../../DaisyExamples/libDaisy//src/hid/ctrl.h ****     potentiometers, and control voltage. \n 
  13:../../DaisyExamples/libDaisy//src/hid/ctrl.h ****     @author Stephen Hensley
  14:../../DaisyExamples/libDaisy//src/hid/ctrl.h ****     @date November 2019
  15:../../DaisyExamples/libDaisy//src/hid/ctrl.h ****     @ingroup controls
  16:../../DaisyExamples/libDaisy//src/hid/ctrl.h **** */
  17:../../DaisyExamples/libDaisy//src/hid/ctrl.h **** class AnalogControl
  18:../../DaisyExamples/libDaisy//src/hid/ctrl.h **** {
  19:../../DaisyExamples/libDaisy//src/hid/ctrl.h ****   public:
  20:../../DaisyExamples/libDaisy//src/hid/ctrl.h ****     /** Constructor */
  21:../../DaisyExamples/libDaisy//src/hid/ctrl.h ****     AnalogControl() {}
  22:../../DaisyExamples/libDaisy//src/hid/ctrl.h ****     /** destructor */
  23:../../DaisyExamples/libDaisy//src/hid/ctrl.h ****     ~AnalogControl() {}
  38              		.loc 2 23 5 view .LVU1
  39              		.loc 2 23 5 is_stmt 0 view .LVU2
  40              	.LBE368:
  41              		.loc 1 27 19 view .LVU3
  42 0000 7047     		bx	lr
  43              		.cfi_endproc
  44              	.LFE1654:
  46              		.weak	_ZN5daisy9ParameterD1Ev
  47              		.thumb_set _ZN5daisy9ParameterD1Ev,_ZN5daisy9ParameterD2Ev
  48 0002 00BF     		.section	.text._ZN5daisy8DaisyPodD2Ev,"axG",%progbits,_ZN5daisy8DaisyPodD5Ev,comdat
  49              		.align	1
  50              		.p2align 2,,3
  51              		.weak	_ZN5daisy8DaisyPodD2Ev
  52              		.syntax unified
  53              		.thumb
  54              		.thumb_func
  55              		.fpu fpv5-d16
  57              	_ZN5daisy8DaisyPodD2Ev:
  58              	.LVL1:
  59              	.LFB2537:
  60              		.file 3 "../../DaisyExamples/libDaisy//src/daisy_pod.h"
   1:../../DaisyExamples/libDaisy//src/daisy_pod.h **** #pragma once
   2:../../DaisyExamples/libDaisy//src/daisy_pod.h **** #ifndef DSY_POD_BSP_H
   3:../../DaisyExamples/libDaisy//src/daisy_pod.h **** #define DSY_POD_BSP_H
   4:../../DaisyExamples/libDaisy//src/daisy_pod.h **** 
   5:../../DaisyExamples/libDaisy//src/daisy_pod.h **** #include "daisy_seed.h"
   6:../../DaisyExamples/libDaisy//src/daisy_pod.h **** 
   7:../../DaisyExamples/libDaisy//src/daisy_pod.h **** namespace daisy
ARM GAS  C:\Users\Estudi\AppData\Local\Temp\ccjMGKtz.s 			page 3


   8:../../DaisyExamples/libDaisy//src/daisy_pod.h **** {
   9:../../DaisyExamples/libDaisy//src/daisy_pod.h **** /**
  10:../../DaisyExamples/libDaisy//src/daisy_pod.h ****     @brief Class that handles initializing all of the hardware specific to the Daisy Patch Board. \
  11:../../DaisyExamples/libDaisy//src/daisy_pod.h ****     Helper funtions are also in place to provide easy access to built-in controls and peripherals.
  12:../../DaisyExamples/libDaisy//src/daisy_pod.h ****     @author Stephen Hensley
  13:../../DaisyExamples/libDaisy//src/daisy_pod.h ****     @date November 2019
  14:../../DaisyExamples/libDaisy//src/daisy_pod.h ****     @ingroup boards
  15:../../DaisyExamples/libDaisy//src/daisy_pod.h **** */
  16:../../DaisyExamples/libDaisy//src/daisy_pod.h **** class DaisyPod
  17:../../DaisyExamples/libDaisy//src/daisy_pod.h **** {
  18:../../DaisyExamples/libDaisy//src/daisy_pod.h ****   public:
  19:../../DaisyExamples/libDaisy//src/daisy_pod.h ****     /** Switches */
  20:../../DaisyExamples/libDaisy//src/daisy_pod.h ****     enum Sw
  21:../../DaisyExamples/libDaisy//src/daisy_pod.h ****     {
  22:../../DaisyExamples/libDaisy//src/daisy_pod.h ****         BUTTON_1,    /** & */
  23:../../DaisyExamples/libDaisy//src/daisy_pod.h ****         BUTTON_2,    /** & */
  24:../../DaisyExamples/libDaisy//src/daisy_pod.h ****         BUTTON_LAST, /** &  */
  25:../../DaisyExamples/libDaisy//src/daisy_pod.h ****     };
  26:../../DaisyExamples/libDaisy//src/daisy_pod.h **** 
  27:../../DaisyExamples/libDaisy//src/daisy_pod.h ****     /** Knobs */
  28:../../DaisyExamples/libDaisy//src/daisy_pod.h ****     enum Knob
  29:../../DaisyExamples/libDaisy//src/daisy_pod.h ****     {
  30:../../DaisyExamples/libDaisy//src/daisy_pod.h ****         KNOB_1,    /** &  */
  31:../../DaisyExamples/libDaisy//src/daisy_pod.h ****         KNOB_2,    /** & */
  32:../../DaisyExamples/libDaisy//src/daisy_pod.h ****         KNOB_LAST, /** & */
  33:../../DaisyExamples/libDaisy//src/daisy_pod.h ****     };
  34:../../DaisyExamples/libDaisy//src/daisy_pod.h **** 
  35:../../DaisyExamples/libDaisy//src/daisy_pod.h ****     DaisyPod() {}
  36:../../DaisyExamples/libDaisy//src/daisy_pod.h ****     ~DaisyPod() {}
  61              		.loc 3 36 5 is_stmt 1 view -0
  62              		.cfi_startproc
  63              		@ args = 0, pretend = 0, frame = 0
  64              		@ frame_needed = 0, uses_anonymous_args = 0
  65              		@ link register save eliminated.
  66              	.LBB369:
  67              	.LBI369:
  68              		.file 4 "../../DaisyExamples/libDaisy//src/hid/midi.h"
   1:../../DaisyExamples/libDaisy//src/hid/midi.h **** #pragma once
   2:../../DaisyExamples/libDaisy//src/hid/midi.h **** #ifndef DSY_MIDI_H
   3:../../DaisyExamples/libDaisy//src/hid/midi.h **** #define DSY_MIDI_H
   4:../../DaisyExamples/libDaisy//src/hid/midi.h **** 
   5:../../DaisyExamples/libDaisy//src/hid/midi.h **** // TODO: make this adjustable
   6:../../DaisyExamples/libDaisy//src/hid/midi.h **** #define SYSEX_BUFFER_LEN 128
   7:../../DaisyExamples/libDaisy//src/hid/midi.h **** 
   8:../../DaisyExamples/libDaisy//src/hid/midi.h **** #include <stdint.h>
   9:../../DaisyExamples/libDaisy//src/hid/midi.h **** #include <stdlib.h>
  10:../../DaisyExamples/libDaisy//src/hid/midi.h **** #include "per/uart.h"
  11:../../DaisyExamples/libDaisy//src/hid/midi.h **** #include "util/ringbuffer.h"
  12:../../DaisyExamples/libDaisy//src/hid/midi.h **** #include "hid/MidiEvent.h"
  13:../../DaisyExamples/libDaisy//src/hid/midi.h **** #include "hid/usb_midi.h"
  14:../../DaisyExamples/libDaisy//src/hid/midi.h **** #include "sys/system.h"
  15:../../DaisyExamples/libDaisy//src/hid/midi.h **** 
  16:../../DaisyExamples/libDaisy//src/hid/midi.h **** namespace daisy
  17:../../DaisyExamples/libDaisy//src/hid/midi.h **** {
  18:../../DaisyExamples/libDaisy//src/hid/midi.h **** /** @brief   Transport layer for sending and receiving MIDI data over UART 
  19:../../DaisyExamples/libDaisy//src/hid/midi.h ****  *  @details This is the mode of communication used for TRS and DIN MIDI
  20:../../DaisyExamples/libDaisy//src/hid/midi.h ****  *  @ingroup midi
ARM GAS  C:\Users\Estudi\AppData\Local\Temp\ccjMGKtz.s 			page 4


  21:../../DaisyExamples/libDaisy//src/hid/midi.h **** */
  22:../../DaisyExamples/libDaisy//src/hid/midi.h **** class MidiUartTransport
  23:../../DaisyExamples/libDaisy//src/hid/midi.h **** {
  24:../../DaisyExamples/libDaisy//src/hid/midi.h ****   public:
  25:../../DaisyExamples/libDaisy//src/hid/midi.h ****     MidiUartTransport() {}
  26:../../DaisyExamples/libDaisy//src/hid/midi.h ****     ~MidiUartTransport() {}
  27:../../DaisyExamples/libDaisy//src/hid/midi.h **** 
  28:../../DaisyExamples/libDaisy//src/hid/midi.h ****     struct Config
  29:../../DaisyExamples/libDaisy//src/hid/midi.h ****     {
  30:../../DaisyExamples/libDaisy//src/hid/midi.h ****         UartHandler::Config::Peripheral periph;
  31:../../DaisyExamples/libDaisy//src/hid/midi.h ****         dsy_gpio_pin                    rx;
  32:../../DaisyExamples/libDaisy//src/hid/midi.h ****         dsy_gpio_pin                    tx;
  33:../../DaisyExamples/libDaisy//src/hid/midi.h **** 
  34:../../DaisyExamples/libDaisy//src/hid/midi.h ****         Config()
  35:../../DaisyExamples/libDaisy//src/hid/midi.h ****         {
  36:../../DaisyExamples/libDaisy//src/hid/midi.h ****             periph = UartHandler::Config::Peripheral::USART_1;
  37:../../DaisyExamples/libDaisy//src/hid/midi.h ****             rx     = {DSY_GPIOB, 7};
  38:../../DaisyExamples/libDaisy//src/hid/midi.h ****             tx     = {DSY_GPIOB, 6};
  39:../../DaisyExamples/libDaisy//src/hid/midi.h ****         }
  40:../../DaisyExamples/libDaisy//src/hid/midi.h ****     };
  41:../../DaisyExamples/libDaisy//src/hid/midi.h **** 
  42:../../DaisyExamples/libDaisy//src/hid/midi.h ****     inline void Init(Config config)
  43:../../DaisyExamples/libDaisy//src/hid/midi.h ****     {
  44:../../DaisyExamples/libDaisy//src/hid/midi.h ****         UartHandler::Config uart_config;
  45:../../DaisyExamples/libDaisy//src/hid/midi.h **** 
  46:../../DaisyExamples/libDaisy//src/hid/midi.h ****         //defaults
  47:../../DaisyExamples/libDaisy//src/hid/midi.h ****         uart_config.baudrate   = 31250;
  48:../../DaisyExamples/libDaisy//src/hid/midi.h ****         uart_config.stopbits   = UartHandler::Config::StopBits::BITS_1;
  49:../../DaisyExamples/libDaisy//src/hid/midi.h ****         uart_config.parity     = UartHandler::Config::Parity::NONE;
  50:../../DaisyExamples/libDaisy//src/hid/midi.h ****         uart_config.mode       = UartHandler::Config::Mode::TX_RX;
  51:../../DaisyExamples/libDaisy//src/hid/midi.h ****         uart_config.wordlength = UartHandler::Config::WordLength::BITS_8;
  52:../../DaisyExamples/libDaisy//src/hid/midi.h **** 
  53:../../DaisyExamples/libDaisy//src/hid/midi.h ****         //user settings
  54:../../DaisyExamples/libDaisy//src/hid/midi.h ****         uart_config.periph        = config.periph;
  55:../../DaisyExamples/libDaisy//src/hid/midi.h ****         uart_config.pin_config.rx = config.rx;
  56:../../DaisyExamples/libDaisy//src/hid/midi.h ****         uart_config.pin_config.tx = config.tx;
  57:../../DaisyExamples/libDaisy//src/hid/midi.h **** 
  58:../../DaisyExamples/libDaisy//src/hid/midi.h ****         uart_.Init(uart_config);
  59:../../DaisyExamples/libDaisy//src/hid/midi.h ****     }
  60:../../DaisyExamples/libDaisy//src/hid/midi.h **** 
  61:../../DaisyExamples/libDaisy//src/hid/midi.h ****     inline void    StartRx() { uart_.StartRx(); }
  62:../../DaisyExamples/libDaisy//src/hid/midi.h ****     inline size_t  Readable() { return uart_.Readable(); }
  63:../../DaisyExamples/libDaisy//src/hid/midi.h ****     inline uint8_t Rx() { return uart_.PopRx(); }
  64:../../DaisyExamples/libDaisy//src/hid/midi.h ****     inline bool    RxActive() { return uart_.RxActive(); }
  65:../../DaisyExamples/libDaisy//src/hid/midi.h ****     inline void    FlushRx() { uart_.FlushRx(); }
  66:../../DaisyExamples/libDaisy//src/hid/midi.h ****     inline void    Tx(uint8_t* buff, size_t size) { uart_.PollTx(buff, size); }
  67:../../DaisyExamples/libDaisy//src/hid/midi.h **** 
  68:../../DaisyExamples/libDaisy//src/hid/midi.h ****   private:
  69:../../DaisyExamples/libDaisy//src/hid/midi.h ****     UartHandler uart_;
  70:../../DaisyExamples/libDaisy//src/hid/midi.h **** };
  71:../../DaisyExamples/libDaisy//src/hid/midi.h **** 
  72:../../DaisyExamples/libDaisy//src/hid/midi.h **** /** 
  73:../../DaisyExamples/libDaisy//src/hid/midi.h ****     @brief Simple MIDI Handler \n 
  74:../../DaisyExamples/libDaisy//src/hid/midi.h ****     Parses bytes from an input into valid MidiEvents. \n 
  75:../../DaisyExamples/libDaisy//src/hid/midi.h ****     The MidiEvents fill a FIFO queue that the user can pop messages from.
  76:../../DaisyExamples/libDaisy//src/hid/midi.h ****     @author shensley
  77:../../DaisyExamples/libDaisy//src/hid/midi.h ****     @date March 2020
ARM GAS  C:\Users\Estudi\AppData\Local\Temp\ccjMGKtz.s 			page 5


  78:../../DaisyExamples/libDaisy//src/hid/midi.h ****     @ingroup midi
  79:../../DaisyExamples/libDaisy//src/hid/midi.h **** */
  80:../../DaisyExamples/libDaisy//src/hid/midi.h **** template <typename Transport>
  81:../../DaisyExamples/libDaisy//src/hid/midi.h **** class MidiHandler
  82:../../DaisyExamples/libDaisy//src/hid/midi.h **** {
  83:../../DaisyExamples/libDaisy//src/hid/midi.h ****   public:
  84:../../DaisyExamples/libDaisy//src/hid/midi.h ****     MidiHandler() {}
  85:../../DaisyExamples/libDaisy//src/hid/midi.h ****     ~MidiHandler() {}
  69              		.loc 4 85 5 view .LVU5
  70              	.LBB370:
  71              	.LBI370:
  26:../../DaisyExamples/libDaisy//src/hid/midi.h **** 
  72              		.loc 4 26 5 view .LVU6
  26:../../DaisyExamples/libDaisy//src/hid/midi.h **** 
  73              		.loc 4 26 5 is_stmt 0 view .LVU7
  74              	.LBE370:
  75              	.LBE369:
  76              	.LBB371:
  77              	.LBI371:
  78              		.file 5 "../../DaisyExamples/libDaisy//src/hid/rgb_led.h"
   1:../../DaisyExamples/libDaisy//src/hid/rgb_led.h **** #pragma once
   2:../../DaisyExamples/libDaisy//src/hid/rgb_led.h **** #ifndef DSY_RGB_LED_H
   3:../../DaisyExamples/libDaisy//src/hid/rgb_led.h **** #define DSY_RGB_LED_H
   4:../../DaisyExamples/libDaisy//src/hid/rgb_led.h **** #include "hid/led.h"
   5:../../DaisyExamples/libDaisy//src/hid/rgb_led.h **** #include "util/color.h"
   6:../../DaisyExamples/libDaisy//src/hid/rgb_led.h **** 
   7:../../DaisyExamples/libDaisy//src/hid/rgb_led.h **** namespace daisy
   8:../../DaisyExamples/libDaisy//src/hid/rgb_led.h **** {
   9:../../DaisyExamples/libDaisy//src/hid/rgb_led.h **** /** @addtogroup feedback
  10:../../DaisyExamples/libDaisy//src/hid/rgb_led.h ****     @{
  11:../../DaisyExamples/libDaisy//src/hid/rgb_led.h **** */
  12:../../DaisyExamples/libDaisy//src/hid/rgb_led.h **** 
  13:../../DaisyExamples/libDaisy//src/hid/rgb_led.h **** /** 3x LEDs configured as an RGB for ease of use. */
  14:../../DaisyExamples/libDaisy//src/hid/rgb_led.h **** class RgbLed
  15:../../DaisyExamples/libDaisy//src/hid/rgb_led.h **** {
  16:../../DaisyExamples/libDaisy//src/hid/rgb_led.h ****   public:
  17:../../DaisyExamples/libDaisy//src/hid/rgb_led.h ****     RgbLed() {}
  18:../../DaisyExamples/libDaisy//src/hid/rgb_led.h ****     ~RgbLed() {}
  79              		.loc 5 18 5 is_stmt 1 view .LVU8
  80              	.LBB372:
  81              	.LBI372:
  82              		.file 6 "../../DaisyExamples/libDaisy//src/hid/led.h"
   1:../../DaisyExamples/libDaisy//src/hid/led.h **** 
   2:../../DaisyExamples/libDaisy//src/hid/led.h **** #pragma once
   3:../../DaisyExamples/libDaisy//src/hid/led.h **** #ifndef DSY_LED_H
   4:../../DaisyExamples/libDaisy//src/hid/led.h **** #define DSY_LED_H
   5:../../DaisyExamples/libDaisy//src/hid/led.h **** #include "daisy_core.h"
   6:../../DaisyExamples/libDaisy//src/hid/led.h **** #include "per/gpio.h"
   7:../../DaisyExamples/libDaisy//src/hid/led.h **** 
   8:../../DaisyExamples/libDaisy//src/hid/led.h **** /* TODO - Get this set up to work with the dev_leddriver stuff as well
   9:../../DaisyExamples/libDaisy//src/hid/led.h **** - Setup Hardware PWM for pins that have it
  10:../../DaisyExamples/libDaisy//src/hid/led.h **** */
  11:../../DaisyExamples/libDaisy//src/hid/led.h **** 
  12:../../DaisyExamples/libDaisy//src/hid/led.h **** namespace daisy
  13:../../DaisyExamples/libDaisy//src/hid/led.h **** {
  14:../../DaisyExamples/libDaisy//src/hid/led.h **** /**
  15:../../DaisyExamples/libDaisy//src/hid/led.h ****     @brief LED Class providing simple Software PWM ability, etc \n 
ARM GAS  C:\Users\Estudi\AppData\Local\Temp\ccjMGKtz.s 			page 6


  16:../../DaisyExamples/libDaisy//src/hid/led.h ****     Eventually this will work with hardware PWM, and external LED Driver devices as well.
  17:../../DaisyExamples/libDaisy//src/hid/led.h ****     @author shensley
  18:../../DaisyExamples/libDaisy//src/hid/led.h ****     @date March 2020
  19:../../DaisyExamples/libDaisy//src/hid/led.h ****     @ingroup feedback
  20:../../DaisyExamples/libDaisy//src/hid/led.h **** */
  21:../../DaisyExamples/libDaisy//src/hid/led.h **** class Led
  22:../../DaisyExamples/libDaisy//src/hid/led.h **** {
  23:../../DaisyExamples/libDaisy//src/hid/led.h ****   public:
  24:../../DaisyExamples/libDaisy//src/hid/led.h ****     Led() {}
  25:../../DaisyExamples/libDaisy//src/hid/led.h ****     ~Led() {}
  83              		.loc 6 25 5 view .LVU9
  84              		.loc 6 25 5 is_stmt 0 view .LVU10
  85              	.LBE372:
  86              	.LBB373:
  87              	.LBI373:
  88              		.loc 6 25 5 is_stmt 1 view .LVU11
  89              		.loc 6 25 5 is_stmt 0 view .LVU12
  90              	.LBE373:
  91              	.LBB374:
  92              	.LBI374:
  93              		.loc 6 25 5 is_stmt 1 view .LVU13
  94              		.loc 6 25 5 is_stmt 0 view .LVU14
  95              	.LBE374:
  96              	.LBE371:
  97              	.LBB375:
  98              	.LBI375:
  99              		.loc 5 18 5 is_stmt 1 view .LVU15
 100              	.LBB376:
 101              	.LBI376:
 102              		.loc 6 25 5 view .LVU16
 103              		.loc 6 25 5 is_stmt 0 view .LVU17
 104              	.LBE376:
 105              	.LBB377:
 106              	.LBI377:
 107              		.loc 6 25 5 is_stmt 1 view .LVU18
 108              		.loc 6 25 5 is_stmt 0 view .LVU19
 109              	.LBE377:
 110              	.LBB378:
 111              	.LBI378:
 112              		.loc 6 25 5 is_stmt 1 view .LVU20
 113              		.loc 6 25 5 is_stmt 0 view .LVU21
 114              	.LBE378:
 115              	.LBE375:
 116              	.LBB379:
 117              	.LBI379:
 118              		.file 7 "../../DaisyExamples/libDaisy//src/hid/switch.h"
   1:../../DaisyExamples/libDaisy//src/hid/switch.h **** #pragma once
   2:../../DaisyExamples/libDaisy//src/hid/switch.h **** #ifndef DSY_SWITCH_H
   3:../../DaisyExamples/libDaisy//src/hid/switch.h **** #define DSY_SWITCH_H
   4:../../DaisyExamples/libDaisy//src/hid/switch.h **** #include "daisy_core.h"
   5:../../DaisyExamples/libDaisy//src/hid/switch.h **** #include "per/gpio.h"
   6:../../DaisyExamples/libDaisy//src/hid/switch.h **** #include "sys/system.h"
   7:../../DaisyExamples/libDaisy//src/hid/switch.h **** 
   8:../../DaisyExamples/libDaisy//src/hid/switch.h **** namespace daisy
   9:../../DaisyExamples/libDaisy//src/hid/switch.h **** {
  10:../../DaisyExamples/libDaisy//src/hid/switch.h **** /** 
  11:../../DaisyExamples/libDaisy//src/hid/switch.h ****     Generic Class for handling momentary/latching switches \n 
ARM GAS  C:\Users\Estudi\AppData\Local\Temp\ccjMGKtz.s 			page 7


  12:../../DaisyExamples/libDaisy//src/hid/switch.h ****     Inspired/influenced by Mutable Instruments (pichenettes) Switch classes
  13:../../DaisyExamples/libDaisy//src/hid/switch.h ****     @author Stephen Hensley
  14:../../DaisyExamples/libDaisy//src/hid/switch.h ****     @date December 2019
  15:../../DaisyExamples/libDaisy//src/hid/switch.h ****     @ingroup controls
  16:../../DaisyExamples/libDaisy//src/hid/switch.h **** */
  17:../../DaisyExamples/libDaisy//src/hid/switch.h **** class Switch
  18:../../DaisyExamples/libDaisy//src/hid/switch.h **** {
  19:../../DaisyExamples/libDaisy//src/hid/switch.h ****   public:
  20:../../DaisyExamples/libDaisy//src/hid/switch.h ****     /** Specifies the expected behavior of the switch */
  21:../../DaisyExamples/libDaisy//src/hid/switch.h ****     enum Type
  22:../../DaisyExamples/libDaisy//src/hid/switch.h ****     {
  23:../../DaisyExamples/libDaisy//src/hid/switch.h ****         TYPE_TOGGLE,    /**< & */
  24:../../DaisyExamples/libDaisy//src/hid/switch.h ****         TYPE_MOMENTARY, /**< & */
  25:../../DaisyExamples/libDaisy//src/hid/switch.h ****     };
  26:../../DaisyExamples/libDaisy//src/hid/switch.h ****     /** Specifies whether the pressed is HIGH or LOW. */
  27:../../DaisyExamples/libDaisy//src/hid/switch.h ****     enum Polarity
  28:../../DaisyExamples/libDaisy//src/hid/switch.h ****     {
  29:../../DaisyExamples/libDaisy//src/hid/switch.h ****         POLARITY_NORMAL,   /**< & */
  30:../../DaisyExamples/libDaisy//src/hid/switch.h ****         POLARITY_INVERTED, /**< & */
  31:../../DaisyExamples/libDaisy//src/hid/switch.h ****     };
  32:../../DaisyExamples/libDaisy//src/hid/switch.h **** 
  33:../../DaisyExamples/libDaisy//src/hid/switch.h ****     /** Specifies whether to use built-in Pull Up/Down resistors to hold button at a given state wh
  34:../../DaisyExamples/libDaisy//src/hid/switch.h ****     enum Pull
  35:../../DaisyExamples/libDaisy//src/hid/switch.h ****     {
  36:../../DaisyExamples/libDaisy//src/hid/switch.h ****         PULL_UP,   /**< & */
  37:../../DaisyExamples/libDaisy//src/hid/switch.h ****         PULL_DOWN, /**< & */
  38:../../DaisyExamples/libDaisy//src/hid/switch.h ****         PULL_NONE, /**< & */
  39:../../DaisyExamples/libDaisy//src/hid/switch.h ****     };
  40:../../DaisyExamples/libDaisy//src/hid/switch.h **** 
  41:../../DaisyExamples/libDaisy//src/hid/switch.h ****     Switch() {}
  42:../../DaisyExamples/libDaisy//src/hid/switch.h ****     ~Switch() {}
 119              		.loc 7 42 5 is_stmt 1 view .LVU22
 120              		.loc 7 42 5 is_stmt 0 view .LVU23
 121              	.LBE379:
 122              	.LBB380:
 123              	.LBI380:
 124              		.loc 7 42 5 is_stmt 1 view .LVU24
 125              		.loc 7 42 5 is_stmt 0 view .LVU25
 126              	.LBE380:
 127              	.LBB381:
 128              	.LBI381:
 129              		.loc 2 23 5 is_stmt 1 view .LVU26
 130              		.loc 2 23 5 is_stmt 0 view .LVU27
 131              	.LBE381:
 132              	.LBB382:
 133              	.LBI382:
 134              		.loc 2 23 5 is_stmt 1 view .LVU28
 135              		.loc 2 23 5 is_stmt 0 view .LVU29
 136              	.LBE382:
 137              	.LBB383:
 138              	.LBI383:
 139              		.file 8 "../../DaisyExamples/libDaisy//src/hid/encoder.h"
   1:../../DaisyExamples/libDaisy//src/hid/encoder.h **** #pragma once
   2:../../DaisyExamples/libDaisy//src/hid/encoder.h **** #ifndef DSY_ENCODER_H
   3:../../DaisyExamples/libDaisy//src/hid/encoder.h **** #define DSY_ENCODER_H
   4:../../DaisyExamples/libDaisy//src/hid/encoder.h **** #include "daisy_core.h"
   5:../../DaisyExamples/libDaisy//src/hid/encoder.h **** #include "per/gpio.h"
ARM GAS  C:\Users\Estudi\AppData\Local\Temp\ccjMGKtz.s 			page 8


   6:../../DaisyExamples/libDaisy//src/hid/encoder.h **** #include "hid/switch.h"
   7:../../DaisyExamples/libDaisy//src/hid/encoder.h **** 
   8:../../DaisyExamples/libDaisy//src/hid/encoder.h **** namespace daisy
   9:../../DaisyExamples/libDaisy//src/hid/encoder.h **** {
  10:../../DaisyExamples/libDaisy//src/hid/encoder.h **** /** 
  11:../../DaisyExamples/libDaisy//src/hid/encoder.h ****     @brief Generic Class for handling Quadrature Encoders \n 
  12:../../DaisyExamples/libDaisy//src/hid/encoder.h ****     Inspired/influenced by Mutable Instruments (pichenettes) Encoder classes
  13:../../DaisyExamples/libDaisy//src/hid/encoder.h ****     @author Stephen Hensley
  14:../../DaisyExamples/libDaisy//src/hid/encoder.h ****     @date December 2019
  15:../../DaisyExamples/libDaisy//src/hid/encoder.h ****     @ingroup controls
  16:../../DaisyExamples/libDaisy//src/hid/encoder.h **** */
  17:../../DaisyExamples/libDaisy//src/hid/encoder.h **** class Encoder
  18:../../DaisyExamples/libDaisy//src/hid/encoder.h **** {
  19:../../DaisyExamples/libDaisy//src/hid/encoder.h ****   public:
  20:../../DaisyExamples/libDaisy//src/hid/encoder.h ****     Encoder() {}
  21:../../DaisyExamples/libDaisy//src/hid/encoder.h ****     ~Encoder() {}
 140              		.loc 8 21 5 is_stmt 1 view .LVU30
 141              	.LBB384:
 142              	.LBI384:
 143              		.loc 7 42 5 view .LVU31
 144              		.loc 7 42 5 is_stmt 0 view .LVU32
 145              	.LBE384:
 146              	.LBE383:
 147              	.LBB385:
 148              	.LBI385:
 149              		.file 9 "../../DaisyExamples/libDaisy//src/daisy_seed.h"
   1:../../DaisyExamples/libDaisy//src/daisy_seed.h **** #pragma once
   2:../../DaisyExamples/libDaisy//src/daisy_seed.h **** #ifndef DSY_SEED_H
   3:../../DaisyExamples/libDaisy//src/daisy_seed.h **** #define DSY_SEED_H
   4:../../DaisyExamples/libDaisy//src/daisy_seed.h **** 
   5:../../DaisyExamples/libDaisy//src/daisy_seed.h **** #include "daisy.h"
   6:../../DaisyExamples/libDaisy//src/daisy_seed.h **** 
   7:../../DaisyExamples/libDaisy//src/daisy_seed.h **** //Uncomment this out if you're still using the rev2 hardware
   8:../../DaisyExamples/libDaisy//src/daisy_seed.h **** //#define SEED_REV2
   9:../../DaisyExamples/libDaisy//src/daisy_seed.h **** 
  10:../../DaisyExamples/libDaisy//src/daisy_seed.h **** namespace daisy
  11:../../DaisyExamples/libDaisy//src/daisy_seed.h **** {
  12:../../DaisyExamples/libDaisy//src/daisy_seed.h **** /**
  13:../../DaisyExamples/libDaisy//src/daisy_seed.h ****    @brief This is the higher-level interface for the Daisy board. \n 
  14:../../DaisyExamples/libDaisy//src/daisy_seed.h ****     All basic peripheral configuration/initialization is setup here. \n
  15:../../DaisyExamples/libDaisy//src/daisy_seed.h **** 
  16:../../DaisyExamples/libDaisy//src/daisy_seed.h ****    @ingroup boards
  17:../../DaisyExamples/libDaisy//src/daisy_seed.h **** */
  18:../../DaisyExamples/libDaisy//src/daisy_seed.h **** class DaisySeed
  19:../../DaisyExamples/libDaisy//src/daisy_seed.h **** {
  20:../../DaisyExamples/libDaisy//src/daisy_seed.h ****   public:
  21:../../DaisyExamples/libDaisy//src/daisy_seed.h ****     DaisySeed() {}
  22:../../DaisyExamples/libDaisy//src/daisy_seed.h ****     ~DaisySeed() {}
 150              		.loc 9 22 5 is_stmt 1 view .LVU33
 151              	.LBB386:
 152              	.LBI386:
 153              		.file 10 "../../DaisyExamples/libDaisy//src/sys/system.h"
   1:../../DaisyExamples/libDaisy//src/sys/system.h **** #ifndef DSY_SYSTEM_H
   2:../../DaisyExamples/libDaisy//src/sys/system.h **** #define DSY_SYSTEM_H
   3:../../DaisyExamples/libDaisy//src/sys/system.h **** 
   4:../../DaisyExamples/libDaisy//src/sys/system.h **** #ifndef UNIT_TEST // for unit tests, a dummy implementation is provided below
   5:../../DaisyExamples/libDaisy//src/sys/system.h **** 
ARM GAS  C:\Users\Estudi\AppData\Local\Temp\ccjMGKtz.s 			page 9


   6:../../DaisyExamples/libDaisy//src/sys/system.h **** #include <cstdint>
   7:../../DaisyExamples/libDaisy//src/sys/system.h **** #include "per/tim.h"
   8:../../DaisyExamples/libDaisy//src/sys/system.h **** 
   9:../../DaisyExamples/libDaisy//src/sys/system.h **** namespace daisy
  10:../../DaisyExamples/libDaisy//src/sys/system.h **** {
  11:../../DaisyExamples/libDaisy//src/sys/system.h **** /** A handle for interacting with the Core System. 
  12:../../DaisyExamples/libDaisy//src/sys/system.h ****  ** This includes the Clock tree, MPU, global DMA initialization,
  13:../../DaisyExamples/libDaisy//src/sys/system.h ****  ** cache handling, and any other necessary global initiailzation
  14:../../DaisyExamples/libDaisy//src/sys/system.h ****  **
  15:../../DaisyExamples/libDaisy//src/sys/system.h ****  ** @author shensley
  16:../../DaisyExamples/libDaisy//src/sys/system.h ****  ** @ingroup system
  17:../../DaisyExamples/libDaisy//src/sys/system.h ****  */
  18:../../DaisyExamples/libDaisy//src/sys/system.h **** class System
  19:../../DaisyExamples/libDaisy//src/sys/system.h **** {
  20:../../DaisyExamples/libDaisy//src/sys/system.h ****   public:
  21:../../DaisyExamples/libDaisy//src/sys/system.h ****     /** Contains settings for initializing the System */
  22:../../DaisyExamples/libDaisy//src/sys/system.h ****     struct Config
  23:../../DaisyExamples/libDaisy//src/sys/system.h ****     {
  24:../../DaisyExamples/libDaisy//src/sys/system.h ****         /** Specifies the system clock frequency that feeds APB/AHB clocks, etc. */
  25:../../DaisyExamples/libDaisy//src/sys/system.h ****         enum class SysClkFreq
  26:../../DaisyExamples/libDaisy//src/sys/system.h ****         {
  27:../../DaisyExamples/libDaisy//src/sys/system.h ****             FREQ_400MHZ,
  28:../../DaisyExamples/libDaisy//src/sys/system.h ****             FREQ_480MHZ,
  29:../../DaisyExamples/libDaisy//src/sys/system.h ****         };
  30:../../DaisyExamples/libDaisy//src/sys/system.h **** 
  31:../../DaisyExamples/libDaisy//src/sys/system.h ****         /** Method to call on the struct to set to defaults
  32:../../DaisyExamples/libDaisy//src/sys/system.h ****          ** CPU Freq set to 400MHz
  33:../../DaisyExamples/libDaisy//src/sys/system.h ****          ** Cache Enabled 
  34:../../DaisyExamples/libDaisy//src/sys/system.h ****          ** */
  35:../../DaisyExamples/libDaisy//src/sys/system.h ****         void Defaults()
  36:../../DaisyExamples/libDaisy//src/sys/system.h ****         {
  37:../../DaisyExamples/libDaisy//src/sys/system.h ****             cpu_freq    = SysClkFreq::FREQ_400MHZ;
  38:../../DaisyExamples/libDaisy//src/sys/system.h ****             use_dcache  = true;
  39:../../DaisyExamples/libDaisy//src/sys/system.h ****             use_icache  = true;
  40:../../DaisyExamples/libDaisy//src/sys/system.h ****             skip_clocks = false;
  41:../../DaisyExamples/libDaisy//src/sys/system.h ****         }
  42:../../DaisyExamples/libDaisy//src/sys/system.h **** 
  43:../../DaisyExamples/libDaisy//src/sys/system.h ****         /** Method to call on the struct to set to boost mode:
  44:../../DaisyExamples/libDaisy//src/sys/system.h ****          ** CPU Freq set to 480MHz
  45:../../DaisyExamples/libDaisy//src/sys/system.h ****          ** Cache Enabled 
  46:../../DaisyExamples/libDaisy//src/sys/system.h ****          ** */
  47:../../DaisyExamples/libDaisy//src/sys/system.h ****         void Boost()
  48:../../DaisyExamples/libDaisy//src/sys/system.h ****         {
  49:../../DaisyExamples/libDaisy//src/sys/system.h ****             cpu_freq    = SysClkFreq::FREQ_480MHZ;
  50:../../DaisyExamples/libDaisy//src/sys/system.h ****             use_dcache  = true;
  51:../../DaisyExamples/libDaisy//src/sys/system.h ****             use_icache  = true;
  52:../../DaisyExamples/libDaisy//src/sys/system.h ****             skip_clocks = false;
  53:../../DaisyExamples/libDaisy//src/sys/system.h ****         }
  54:../../DaisyExamples/libDaisy//src/sys/system.h **** 
  55:../../DaisyExamples/libDaisy//src/sys/system.h ****         SysClkFreq cpu_freq;
  56:../../DaisyExamples/libDaisy//src/sys/system.h ****         bool       use_dcache;
  57:../../DaisyExamples/libDaisy//src/sys/system.h ****         bool       use_icache;
  58:../../DaisyExamples/libDaisy//src/sys/system.h ****         bool       skip_clocks;
  59:../../DaisyExamples/libDaisy//src/sys/system.h ****     };
  60:../../DaisyExamples/libDaisy//src/sys/system.h **** 
  61:../../DaisyExamples/libDaisy//src/sys/system.h ****     /** Describes the different regions of memory available to the Daisy
  62:../../DaisyExamples/libDaisy//src/sys/system.h ****      * 
ARM GAS  C:\Users\Estudi\AppData\Local\Temp\ccjMGKtz.s 			page 10


  63:../../DaisyExamples/libDaisy//src/sys/system.h ****      */
  64:../../DaisyExamples/libDaisy//src/sys/system.h ****     enum MemoryRegion
  65:../../DaisyExamples/libDaisy//src/sys/system.h ****     {
  66:../../DaisyExamples/libDaisy//src/sys/system.h ****         INTERNAL_FLASH = 0,
  67:../../DaisyExamples/libDaisy//src/sys/system.h ****         ITCMRAM,
  68:../../DaisyExamples/libDaisy//src/sys/system.h ****         DTCMRAM,
  69:../../DaisyExamples/libDaisy//src/sys/system.h ****         SRAM_D1,
  70:../../DaisyExamples/libDaisy//src/sys/system.h ****         SRAM_D2,
  71:../../DaisyExamples/libDaisy//src/sys/system.h ****         SRAM_D3,
  72:../../DaisyExamples/libDaisy//src/sys/system.h ****         SDRAM,
  73:../../DaisyExamples/libDaisy//src/sys/system.h ****         QSPI,
  74:../../DaisyExamples/libDaisy//src/sys/system.h ****         INVALID_ADDRESS,
  75:../../DaisyExamples/libDaisy//src/sys/system.h ****     };
  76:../../DaisyExamples/libDaisy//src/sys/system.h **** 
  77:../../DaisyExamples/libDaisy//src/sys/system.h ****     System() {}
  78:../../DaisyExamples/libDaisy//src/sys/system.h ****     ~System() {}
 154              		.loc 10 78 5 view .LVU34
 155              		.loc 10 78 5 is_stmt 0 view .LVU35
 156              	.LBE386:
 157              	.LBB387:
 158              	.LBI387:
 159              		.file 11 "../../DaisyExamples/libDaisy//src/hid/usb.h"
   1:../../DaisyExamples/libDaisy//src/hid/usb.h **** #pragma once
   2:../../DaisyExamples/libDaisy//src/hid/usb.h **** #ifndef DSY_HID_USB_H
   3:../../DaisyExamples/libDaisy//src/hid/usb.h **** #define DSY_HID_USB_H
   4:../../DaisyExamples/libDaisy//src/hid/usb.h **** #include <stdint.h>
   5:../../DaisyExamples/libDaisy//src/hid/usb.h **** #include <stdlib.h>
   6:../../DaisyExamples/libDaisy//src/hid/usb.h **** 
   7:../../DaisyExamples/libDaisy//src/hid/usb.h **** namespace daisy
   8:../../DaisyExamples/libDaisy//src/hid/usb.h **** /** @addtogroup human_interface
   9:../../DaisyExamples/libDaisy//src/hid/usb.h ****     @{
  10:../../DaisyExamples/libDaisy//src/hid/usb.h **** */
  11:../../DaisyExamples/libDaisy//src/hid/usb.h **** 
  12:../../DaisyExamples/libDaisy//src/hid/usb.h **** {
  13:../../DaisyExamples/libDaisy//src/hid/usb.h **** /** 
  14:../../DaisyExamples/libDaisy//src/hid/usb.h ****     @brief Interface for initializing and using the USB Peripherals on the daisy
  15:../../DaisyExamples/libDaisy//src/hid/usb.h ****     @author Stephen Hensley
  16:../../DaisyExamples/libDaisy//src/hid/usb.h ****     @date December 2019
  17:../../DaisyExamples/libDaisy//src/hid/usb.h **** */
  18:../../DaisyExamples/libDaisy//src/hid/usb.h **** class UsbHandle
  19:../../DaisyExamples/libDaisy//src/hid/usb.h **** {
  20:../../DaisyExamples/libDaisy//src/hid/usb.h ****   public:
  21:../../DaisyExamples/libDaisy//src/hid/usb.h ****     /** Return values for USBHandle Functions */
  22:../../DaisyExamples/libDaisy//src/hid/usb.h ****     enum class Result
  23:../../DaisyExamples/libDaisy//src/hid/usb.h ****     {
  24:../../DaisyExamples/libDaisy//src/hid/usb.h ****         OK,
  25:../../DaisyExamples/libDaisy//src/hid/usb.h ****         ERR,
  26:../../DaisyExamples/libDaisy//src/hid/usb.h ****     };
  27:../../DaisyExamples/libDaisy//src/hid/usb.h **** 
  28:../../DaisyExamples/libDaisy//src/hid/usb.h ****     /** Specified which of the two USB Peripherals to initialize. */
  29:../../DaisyExamples/libDaisy//src/hid/usb.h ****     enum UsbPeriph
  30:../../DaisyExamples/libDaisy//src/hid/usb.h ****     {
  31:../../DaisyExamples/libDaisy//src/hid/usb.h ****         FS_INTERNAL, /**< Internal pin */
  32:../../DaisyExamples/libDaisy//src/hid/usb.h ****         FS_EXTERNAL, /**< FS External D+ pin is Pin 38 (GPIO32). FS External D- pin is Pin 37 (GPIO
  33:../../DaisyExamples/libDaisy//src/hid/usb.h ****         FS_BOTH,     /**< Both */
  34:../../DaisyExamples/libDaisy//src/hid/usb.h ****     };
  35:../../DaisyExamples/libDaisy//src/hid/usb.h **** 
ARM GAS  C:\Users\Estudi\AppData\Local\Temp\ccjMGKtz.s 			page 11


  36:../../DaisyExamples/libDaisy//src/hid/usb.h **** 
  37:../../DaisyExamples/libDaisy//src/hid/usb.h ****     /** Function called upon reception of a buffer */
  38:../../DaisyExamples/libDaisy//src/hid/usb.h ****     typedef void (*ReceiveCallback)(uint8_t* buff, uint32_t* len);
  39:../../DaisyExamples/libDaisy//src/hid/usb.h **** 
  40:../../DaisyExamples/libDaisy//src/hid/usb.h ****     UsbHandle() {}
  41:../../DaisyExamples/libDaisy//src/hid/usb.h **** 
  42:../../DaisyExamples/libDaisy//src/hid/usb.h ****     ~UsbHandle() {}
 160              		.loc 11 42 5 is_stmt 1 view .LVU36
 161              		.loc 11 42 5 is_stmt 0 view .LVU37
 162              	.LBE387:
 163              	.LBB388:
 164              	.LBI388:
 165              		.file 12 "../../DaisyExamples/libDaisy//src/per/adc.h"
   1:../../DaisyExamples/libDaisy//src/per/adc.h **** #pragma once
   2:../../DaisyExamples/libDaisy//src/per/adc.h **** #ifndef DSY_ADC_H
   3:../../DaisyExamples/libDaisy//src/per/adc.h **** #define DSY_ADC_H /**< Macro */
   4:../../DaisyExamples/libDaisy//src/per/adc.h **** #include <stdint.h>
   5:../../DaisyExamples/libDaisy//src/per/adc.h **** #include <stdlib.h>
   6:../../DaisyExamples/libDaisy//src/per/adc.h **** #include "daisy_core.h"
   7:../../DaisyExamples/libDaisy//src/per/adc.h **** #include "per/gpio.h"
   8:../../DaisyExamples/libDaisy//src/per/adc.h **** 
   9:../../DaisyExamples/libDaisy//src/per/adc.h **** #define DSY_ADC_MAX_CHANNELS 16 /**< Maximum number of ADC channels */
  10:../../DaisyExamples/libDaisy//src/per/adc.h **** 
  11:../../DaisyExamples/libDaisy//src/per/adc.h **** namespace daisy
  12:../../DaisyExamples/libDaisy//src/per/adc.h **** {
  13:../../DaisyExamples/libDaisy//src/per/adc.h **** /** @addtogroup per_analog
  14:../../DaisyExamples/libDaisy//src/per/adc.h ****     @{
  15:../../DaisyExamples/libDaisy//src/per/adc.h **** */
  16:../../DaisyExamples/libDaisy//src/per/adc.h **** 
  17:../../DaisyExamples/libDaisy//src/per/adc.h **** /* While there may not be many configuration options here,
  18:../../DaisyExamples/libDaisy//src/per/adc.h **** using a struct like this allows us to add more configuration
  19:../../DaisyExamples/libDaisy//src/per/adc.h **** later without breaking existing functionality.
  20:../../DaisyExamples/libDaisy//src/per/adc.h **** */
  21:../../DaisyExamples/libDaisy//src/per/adc.h **** 
  22:../../DaisyExamples/libDaisy//src/per/adc.h **** /** @brief   Configuration Structure for an ADC Channel 
  23:../../DaisyExamples/libDaisy//src/per/adc.h ****  *  @details This can be used to configure a a single input, 
  24:../../DaisyExamples/libDaisy//src/per/adc.h ****  *           or a multiplexed input, allowing up to 8 inputs on 
  25:../../DaisyExamples/libDaisy//src/per/adc.h ****  *           one channel.
  26:../../DaisyExamples/libDaisy//src/per/adc.h ****  *  @note    Sharing data lines to multiple muxes _is_ possible, but
  27:../../DaisyExamples/libDaisy//src/per/adc.h ****  *           each channel sharing data lines must be set to the maximum
  28:../../DaisyExamples/libDaisy//src/per/adc.h ****  *           number of channels, even if some multiplexers have fewer
  29:../../DaisyExamples/libDaisy//src/per/adc.h ****  *           inputs connected.
  30:../../DaisyExamples/libDaisy//src/per/adc.h **** */
  31:../../DaisyExamples/libDaisy//src/per/adc.h **** struct AdcChannelConfig
  32:../../DaisyExamples/libDaisy//src/per/adc.h **** {
  33:../../DaisyExamples/libDaisy//src/per/adc.h ****     /** Which pin to use for multiplexing */
  34:../../DaisyExamples/libDaisy//src/per/adc.h ****     enum MuxPin
  35:../../DaisyExamples/libDaisy//src/per/adc.h ****     {
  36:../../DaisyExamples/libDaisy//src/per/adc.h ****         MUX_SEL_0,    /**< & */
  37:../../DaisyExamples/libDaisy//src/per/adc.h ****         MUX_SEL_1,    /**< & */
  38:../../DaisyExamples/libDaisy//src/per/adc.h ****         MUX_SEL_2,    /**< & */
  39:../../DaisyExamples/libDaisy//src/per/adc.h ****         MUX_SEL_LAST, /**< & */
  40:../../DaisyExamples/libDaisy//src/per/adc.h ****     };
  41:../../DaisyExamples/libDaisy//src/per/adc.h **** 
  42:../../DaisyExamples/libDaisy//src/per/adc.h ****     /** Initializes a single ADC pin as an ADC. 
  43:../../DaisyExamples/libDaisy//src/per/adc.h ****     \param pin Pin to init.
  44:../../DaisyExamples/libDaisy//src/per/adc.h ****      */
ARM GAS  C:\Users\Estudi\AppData\Local\Temp\ccjMGKtz.s 			page 12


  45:../../DaisyExamples/libDaisy//src/per/adc.h ****     void InitSingle(dsy_gpio_pin pin);
  46:../../DaisyExamples/libDaisy//src/per/adc.h **** 
  47:../../DaisyExamples/libDaisy//src/per/adc.h ****     /** 
  48:../../DaisyExamples/libDaisy//src/per/adc.h ****     Initializes a single ADC pin as a Multiplexed ADC.
  49:../../DaisyExamples/libDaisy//src/per/adc.h ****     Requires a CD405X Multiplexer connected to the pin.
  50:../../DaisyExamples/libDaisy//src/per/adc.h ****     You only need to supply the mux pins that are required,
  51:../../DaisyExamples/libDaisy//src/per/adc.h ****     e.g. a 4052 mux would only require mux_0 and mux_1.
  52:../../DaisyExamples/libDaisy//src/per/adc.h ****     Internal Callbacks handle the pin addressing.
  53:../../DaisyExamples/libDaisy//src/per/adc.h ****     \param mux_channels must be 1-8
  54:../../DaisyExamples/libDaisy//src/per/adc.h ****     \param mux_0 First mux pin
  55:../../DaisyExamples/libDaisy//src/per/adc.h ****     \param mux_1 Second mux pin
  56:../../DaisyExamples/libDaisy//src/per/adc.h ****     \param mux_2 Third mux pin
  57:../../DaisyExamples/libDaisy//src/per/adc.h ****     \param adc_pin &
  58:../../DaisyExamples/libDaisy//src/per/adc.h ****     */
  59:../../DaisyExamples/libDaisy//src/per/adc.h ****     void InitMux(dsy_gpio_pin adc_pin,
  60:../../DaisyExamples/libDaisy//src/per/adc.h ****                  size_t       mux_channels,
  61:../../DaisyExamples/libDaisy//src/per/adc.h ****                  dsy_gpio_pin mux_0,
  62:../../DaisyExamples/libDaisy//src/per/adc.h ****                  dsy_gpio_pin mux_1 = {DSY_GPIOX, 0},
  63:../../DaisyExamples/libDaisy//src/per/adc.h ****                  dsy_gpio_pin mux_2 = {DSY_GPIOX, 0});
  64:../../DaisyExamples/libDaisy//src/per/adc.h **** 
  65:../../DaisyExamples/libDaisy//src/per/adc.h ****     dsy_gpio pin_;                   /**< & */
  66:../../DaisyExamples/libDaisy//src/per/adc.h ****     dsy_gpio mux_pin_[MUX_SEL_LAST]; /**< & */
  67:../../DaisyExamples/libDaisy//src/per/adc.h ****     uint8_t  mux_channels_;          /**< & */
  68:../../DaisyExamples/libDaisy//src/per/adc.h **** };
  69:../../DaisyExamples/libDaisy//src/per/adc.h **** 
  70:../../DaisyExamples/libDaisy//src/per/adc.h **** /**
  71:../../DaisyExamples/libDaisy//src/per/adc.h ****    @brief Handler for analog to digital conversion
  72:../../DaisyExamples/libDaisy//src/per/adc.h **** */
  73:../../DaisyExamples/libDaisy//src/per/adc.h **** class AdcHandle
  74:../../DaisyExamples/libDaisy//src/per/adc.h **** {
  75:../../DaisyExamples/libDaisy//src/per/adc.h ****   public:
  76:../../DaisyExamples/libDaisy//src/per/adc.h ****     /** Supported oversampling amounts */
  77:../../DaisyExamples/libDaisy//src/per/adc.h ****     enum OverSampling
  78:../../DaisyExamples/libDaisy//src/per/adc.h ****     {
  79:../../DaisyExamples/libDaisy//src/per/adc.h ****         OVS_NONE, /**< & */
  80:../../DaisyExamples/libDaisy//src/per/adc.h ****         OVS_4,    /**< & */
  81:../../DaisyExamples/libDaisy//src/per/adc.h ****         OVS_8,    /**< & */
  82:../../DaisyExamples/libDaisy//src/per/adc.h ****         OVS_16,   /**< & */
  83:../../DaisyExamples/libDaisy//src/per/adc.h ****         OVS_32,   /**< & */
  84:../../DaisyExamples/libDaisy//src/per/adc.h ****         OVS_64,   /**< & */
  85:../../DaisyExamples/libDaisy//src/per/adc.h ****         OVS_128,  /**< & */
  86:../../DaisyExamples/libDaisy//src/per/adc.h ****         OVS_256,  /**< & */
  87:../../DaisyExamples/libDaisy//src/per/adc.h ****         OVS_512,  /**< & */
  88:../../DaisyExamples/libDaisy//src/per/adc.h ****         OVS_1024, /**< & */
  89:../../DaisyExamples/libDaisy//src/per/adc.h ****         OVS_LAST, /**< & */
  90:../../DaisyExamples/libDaisy//src/per/adc.h ****     };
  91:../../DaisyExamples/libDaisy//src/per/adc.h **** 
  92:../../DaisyExamples/libDaisy//src/per/adc.h ****     AdcHandle() {}
  93:../../DaisyExamples/libDaisy//src/per/adc.h ****     ~AdcHandle() {}
 166              		.loc 12 93 5 is_stmt 1 view .LVU38
 167              		.loc 12 93 5 is_stmt 0 view .LVU39
 168              	.LBE388:
 169              	.LBB389:
 170              	.LBI389:
 171              		.file 13 "../../DaisyExamples/libDaisy//src/hid/audio.h"
   1:../../DaisyExamples/libDaisy//src/hid/audio.h **** #ifndef DSY_AUDIO_H
   2:../../DaisyExamples/libDaisy//src/hid/audio.h **** #define DSY_AUDIO_H /**< & */
ARM GAS  C:\Users\Estudi\AppData\Local\Temp\ccjMGKtz.s 			page 13


   3:../../DaisyExamples/libDaisy//src/hid/audio.h **** 
   4:../../DaisyExamples/libDaisy//src/hid/audio.h **** #include "per/sai.h"
   5:../../DaisyExamples/libDaisy//src/hid/audio.h **** 
   6:../../DaisyExamples/libDaisy//src/hid/audio.h **** namespace daisy
   7:../../DaisyExamples/libDaisy//src/hid/audio.h **** {
   8:../../DaisyExamples/libDaisy//src/hid/audio.h **** /** @brief Audio Engine Handle
   9:../../DaisyExamples/libDaisy//src/hid/audio.h ****  *  @ingroup audio 
  10:../../DaisyExamples/libDaisy//src/hid/audio.h ****  *  @details This class allows for higher level access to an audio engine.
  11:../../DaisyExamples/libDaisy//src/hid/audio.h ****  *           If you're using a SOM like the DaisySeed or DaisyPatchSM (or any 
  12:../../DaisyExamples/libDaisy//src/hid/audio.h ****  *            board that includes one of those objects) then the intialization
  13:../../DaisyExamples/libDaisy//src/hid/audio.h ****  *            is already taken  care of.
  14:../../DaisyExamples/libDaisy//src/hid/audio.h ****  *           If you're setting up your own custom hardware, or need to make changes
  15:../../DaisyExamples/libDaisy//src/hid/audio.h ****  *           you will have to take the following steps:
  16:../../DaisyExamples/libDaisy//src/hid/audio.h ****  *             1. Create and Initialize an SaiHandle or two depending on your requirements
  17:../../DaisyExamples/libDaisy//src/hid/audio.h ****  *             2. Initialize the Audio Handle with the desired settings and the Initialized SaiHand
  18:../../DaisyExamples/libDaisy//src/hid/audio.h ****  *             3. If the connected codec requires special configuration or initialization, do so
  19:../../DaisyExamples/libDaisy//src/hid/audio.h ****  *             4. Write a callback method using either the AudioCallback or the InterleavingAudioCa
  20:../../DaisyExamples/libDaisy//src/hid/audio.h ****  *             5. Start the Audio using one of the StartAudio function
  21:../../DaisyExamples/libDaisy//src/hid/audio.h ****  */
  22:../../DaisyExamples/libDaisy//src/hid/audio.h **** class AudioHandle
  23:../../DaisyExamples/libDaisy//src/hid/audio.h **** {
  24:../../DaisyExamples/libDaisy//src/hid/audio.h ****   public:
  25:../../DaisyExamples/libDaisy//src/hid/audio.h ****     /** Manually configurable details about the Audio Engine */
  26:../../DaisyExamples/libDaisy//src/hid/audio.h ****     /** TODO: Figure out how to get samplerate in here. */
  27:../../DaisyExamples/libDaisy//src/hid/audio.h ****     struct Config
  28:../../DaisyExamples/libDaisy//src/hid/audio.h ****     {
  29:../../DaisyExamples/libDaisy//src/hid/audio.h ****         /** number of samples to process per callback */
  30:../../DaisyExamples/libDaisy//src/hid/audio.h ****         size_t blocksize;
  31:../../DaisyExamples/libDaisy//src/hid/audio.h **** 
  32:../../DaisyExamples/libDaisy//src/hid/audio.h ****         /**< Sample rate of audio */
  33:../../DaisyExamples/libDaisy//src/hid/audio.h ****         SaiHandle::Config::SampleRate samplerate;
  34:../../DaisyExamples/libDaisy//src/hid/audio.h **** 
  35:../../DaisyExamples/libDaisy//src/hid/audio.h ****         /** factor for adjustment before and after callback for hardware that may have extra headro
  36:../../DaisyExamples/libDaisy//src/hid/audio.h ****         float postgain;
  37:../../DaisyExamples/libDaisy//src/hid/audio.h **** 
  38:../../DaisyExamples/libDaisy//src/hid/audio.h ****         /** factor for additional one-sided compensation to audio path for hardware that may
  39:../../DaisyExamples/libDaisy//src/hid/audio.h ****          *  have unequal input/output ranges
  40:../../DaisyExamples/libDaisy//src/hid/audio.h ****          */
  41:../../DaisyExamples/libDaisy//src/hid/audio.h ****         float output_compensation;
  42:../../DaisyExamples/libDaisy//src/hid/audio.h **** 
  43:../../DaisyExamples/libDaisy//src/hid/audio.h ****         /** Sets default values for config struct */
  44:../../DaisyExamples/libDaisy//src/hid/audio.h ****         Config()
  45:../../DaisyExamples/libDaisy//src/hid/audio.h ****         : blocksize(48),
  46:../../DaisyExamples/libDaisy//src/hid/audio.h ****           samplerate(SaiHandle::Config::SampleRate::SAI_48KHZ),
  47:../../DaisyExamples/libDaisy//src/hid/audio.h ****           postgain(1.f),
  48:../../DaisyExamples/libDaisy//src/hid/audio.h ****           output_compensation(1.f)
  49:../../DaisyExamples/libDaisy//src/hid/audio.h ****         {
  50:../../DaisyExamples/libDaisy//src/hid/audio.h ****         }
  51:../../DaisyExamples/libDaisy//src/hid/audio.h ****     };
  52:../../DaisyExamples/libDaisy//src/hid/audio.h **** 
  53:../../DaisyExamples/libDaisy//src/hid/audio.h ****     enum class Result
  54:../../DaisyExamples/libDaisy//src/hid/audio.h ****     {
  55:../../DaisyExamples/libDaisy//src/hid/audio.h ****         OK,
  56:../../DaisyExamples/libDaisy//src/hid/audio.h ****         ERR,
  57:../../DaisyExamples/libDaisy//src/hid/audio.h ****     };
  58:../../DaisyExamples/libDaisy//src/hid/audio.h **** 
  59:../../DaisyExamples/libDaisy//src/hid/audio.h ****     /** Non-Interleaving input buffer
ARM GAS  C:\Users\Estudi\AppData\Local\Temp\ccjMGKtz.s 			page 14


  60:../../DaisyExamples/libDaisy//src/hid/audio.h ****      * Buffer arranged by float[chn][sample] 
  61:../../DaisyExamples/libDaisy//src/hid/audio.h ****      * const so that the user can't modify the input
  62:../../DaisyExamples/libDaisy//src/hid/audio.h ****      */
  63:../../DaisyExamples/libDaisy//src/hid/audio.h ****     typedef const float* const* InputBuffer;
  64:../../DaisyExamples/libDaisy//src/hid/audio.h **** 
  65:../../DaisyExamples/libDaisy//src/hid/audio.h ****     /** Non-Interleaving output buffer
  66:../../DaisyExamples/libDaisy//src/hid/audio.h ****      * Arranged by float[chn][sample] 
  67:../../DaisyExamples/libDaisy//src/hid/audio.h ****      */
  68:../../DaisyExamples/libDaisy//src/hid/audio.h ****     typedef float** OutputBuffer;
  69:../../DaisyExamples/libDaisy//src/hid/audio.h **** 
  70:../../DaisyExamples/libDaisy//src/hid/audio.h ****     /** Type for a Non-Interleaving audio callback 
  71:../../DaisyExamples/libDaisy//src/hid/audio.h ****      * Non-Interleaving audio callbacks in daisy will be of this type
  72:../../DaisyExamples/libDaisy//src/hid/audio.h ****      */
  73:../../DaisyExamples/libDaisy//src/hid/audio.h ****     typedef void (*AudioCallback)(InputBuffer  in,
  74:../../DaisyExamples/libDaisy//src/hid/audio.h ****                                   OutputBuffer out,
  75:../../DaisyExamples/libDaisy//src/hid/audio.h ****                                   size_t       size);
  76:../../DaisyExamples/libDaisy//src/hid/audio.h **** 
  77:../../DaisyExamples/libDaisy//src/hid/audio.h ****     /** Interleaving Input buffer
  78:../../DaisyExamples/libDaisy//src/hid/audio.h ****      ** audio is prepared as { L0, R0, L1, R1, . . . LN, RN }]
  79:../../DaisyExamples/libDaisy//src/hid/audio.h ****      ** this is const, as the user shouldn't modify it
  80:../../DaisyExamples/libDaisy//src/hid/audio.h ****     */
  81:../../DaisyExamples/libDaisy//src/hid/audio.h ****     typedef const float* InterleavingInputBuffer;
  82:../../DaisyExamples/libDaisy//src/hid/audio.h **** 
  83:../../DaisyExamples/libDaisy//src/hid/audio.h ****     /** Interleaving Output buffer 
  84:../../DaisyExamples/libDaisy//src/hid/audio.h ****      ** audio is prepared as { L0, R0, L1, R1, . . . LN, RN }
  85:../../DaisyExamples/libDaisy//src/hid/audio.h ****     */
  86:../../DaisyExamples/libDaisy//src/hid/audio.h ****     typedef float* InterleavingOutputBuffer;
  87:../../DaisyExamples/libDaisy//src/hid/audio.h **** 
  88:../../DaisyExamples/libDaisy//src/hid/audio.h ****     /** Interleaving Audio Callback 
  89:../../DaisyExamples/libDaisy//src/hid/audio.h ****      * Interleaving audio callbacks in daisy must be of this type
  90:../../DaisyExamples/libDaisy//src/hid/audio.h ****      */
  91:../../DaisyExamples/libDaisy//src/hid/audio.h ****     typedef void (*InterleavingAudioCallback)(InterleavingInputBuffer  in,
  92:../../DaisyExamples/libDaisy//src/hid/audio.h ****                                               InterleavingOutputBuffer out,
  93:../../DaisyExamples/libDaisy//src/hid/audio.h ****                                               size_t                   size);
  94:../../DaisyExamples/libDaisy//src/hid/audio.h **** 
  95:../../DaisyExamples/libDaisy//src/hid/audio.h ****     AudioHandle() : pimpl_(nullptr) {}
  96:../../DaisyExamples/libDaisy//src/hid/audio.h ****     ~AudioHandle() {}
 172              		.loc 13 96 5 is_stmt 1 view .LVU40
 173              		.loc 13 96 5 is_stmt 0 view .LVU41
 174              	.LBE389:
 175              	.LBE385:
 176              		.loc 3 36 18 view .LVU42
 177 0000 7047     		bx	lr
 178              		.cfi_endproc
 179              	.LFE2537:
 181              		.weak	_ZN5daisy8DaisyPodD1Ev
 182              		.thumb_set _ZN5daisy8DaisyPodD1Ev,_ZN5daisy8DaisyPodD2Ev
 183 0002 00BF     		.section	.text._ZN7daisysp3SvfD2Ev,"axG",%progbits,_ZN7daisysp3SvfD5Ev,comdat
 184              		.align	1
 185              		.p2align 2,,3
 186              		.weak	_ZN7daisysp3SvfD2Ev
 187              		.syntax unified
 188              		.thumb
 189              		.thumb_func
 190              		.fpu fpv5-d16
 192              	_ZN7daisysp3SvfD2Ev:
 193              	.LVL2:
ARM GAS  C:\Users\Estudi\AppData\Local\Temp\ccjMGKtz.s 			page 15


 194              	.LFB4242:
 195              		.file 14 "../../DaisyExamples/DaisySP//Source/Filters/svf.h"
   1:../../DaisyExamples/DaisySP//Source/Filters/svf.h **** #pragma once
   2:../../DaisyExamples/DaisySP//Source/Filters/svf.h **** #ifndef DSY_SVF_H
   3:../../DaisyExamples/DaisySP//Source/Filters/svf.h **** #define DSY_SVF_H
   4:../../DaisyExamples/DaisySP//Source/Filters/svf.h **** 
   5:../../DaisyExamples/DaisySP//Source/Filters/svf.h **** namespace daisysp
   6:../../DaisyExamples/DaisySP//Source/Filters/svf.h **** {
   7:../../DaisyExamples/DaisySP//Source/Filters/svf.h **** /**      Double Sampled, Stable State Variable Filter
   8:../../DaisyExamples/DaisySP//Source/Filters/svf.h **** 
   9:../../DaisyExamples/DaisySP//Source/Filters/svf.h **** Credit to Andrew Simper from musicdsp.org
  10:../../DaisyExamples/DaisySP//Source/Filters/svf.h **** 
  11:../../DaisyExamples/DaisySP//Source/Filters/svf.h **** This is his "State Variable Filter (Double Sampled, Stable)"
  12:../../DaisyExamples/DaisySP//Source/Filters/svf.h **** 
  13:../../DaisyExamples/DaisySP//Source/Filters/svf.h **** Additional thanks to Laurent de Soras for stability limit, and 
  14:../../DaisyExamples/DaisySP//Source/Filters/svf.h **** Stefan Diedrichsen for the correct notch output
  15:../../DaisyExamples/DaisySP//Source/Filters/svf.h **** 
  16:../../DaisyExamples/DaisySP//Source/Filters/svf.h **** Ported by: Stephen Hensley
  17:../../DaisyExamples/DaisySP//Source/Filters/svf.h **** */
  18:../../DaisyExamples/DaisySP//Source/Filters/svf.h **** class Svf
  19:../../DaisyExamples/DaisySP//Source/Filters/svf.h **** {
  20:../../DaisyExamples/DaisySP//Source/Filters/svf.h ****   public:
  21:../../DaisyExamples/DaisySP//Source/Filters/svf.h ****     Svf() {}
  22:../../DaisyExamples/DaisySP//Source/Filters/svf.h ****     ~Svf() {}
 196              		.loc 14 22 5 is_stmt 1 view -0
 197              		.cfi_startproc
 198              		@ args = 0, pretend = 0, frame = 0
 199              		@ frame_needed = 0, uses_anonymous_args = 0
 200              		@ link register save eliminated.
 201              		.loc 14 22 13 is_stmt 0 view .LVU44
 202 0000 7047     		bx	lr
 203              		.cfi_endproc
 204              	.LFE4242:
 206              		.weak	_ZN7daisysp3SvfD1Ev
 207              		.thumb_set _ZN7daisysp3SvfD1Ev,_ZN7daisysp3SvfD2Ev
 208              		.section	.text._ZN7daisysp8ReverbScD2Ev,"axG",%progbits,_ZN7daisysp8ReverbScD5Ev,comdat
 209              		.align	1
 210              		.p2align 2,,3
 211              		.weak	_ZN7daisysp8ReverbScD2Ev
 212              		.syntax unified
 213              		.thumb
 214              		.thumb_func
 215              		.fpu fpv5-d16
 217              	_ZN7daisysp8ReverbScD2Ev:
 218              	.LVL3:
 219              	.LFB4429:
 220              		.file 15 "../../DaisyExamples/DaisySP//Source/Effects/reverbsc.h"
   1:../../DaisyExamples/DaisySP//Source/Effects/reverbsc.h **** #pragma once
   2:../../DaisyExamples/DaisySP//Source/Effects/reverbsc.h **** #ifndef DSYSP_REVERBSC_H
   3:../../DaisyExamples/DaisySP//Source/Effects/reverbsc.h **** #define DSYSP_REVERBSC_H
   4:../../DaisyExamples/DaisySP//Source/Effects/reverbsc.h **** 
   5:../../DaisyExamples/DaisySP//Source/Effects/reverbsc.h **** #define DSY_REVERBSC_MAX_SIZE 98936
   6:../../DaisyExamples/DaisySP//Source/Effects/reverbsc.h **** 
   7:../../DaisyExamples/DaisySP//Source/Effects/reverbsc.h **** namespace daisysp
   8:../../DaisyExamples/DaisySP//Source/Effects/reverbsc.h **** {
   9:../../DaisyExamples/DaisySP//Source/Effects/reverbsc.h **** /**Delay line for internal reverb use
  10:../../DaisyExamples/DaisySP//Source/Effects/reverbsc.h **** */
ARM GAS  C:\Users\Estudi\AppData\Local\Temp\ccjMGKtz.s 			page 16


  11:../../DaisyExamples/DaisySP//Source/Effects/reverbsc.h **** typedef struct
  12:../../DaisyExamples/DaisySP//Source/Effects/reverbsc.h **** {
  13:../../DaisyExamples/DaisySP//Source/Effects/reverbsc.h ****     int    write_pos;         /**< write position */
  14:../../DaisyExamples/DaisySP//Source/Effects/reverbsc.h ****     int    buffer_size;       /**< buffer size */
  15:../../DaisyExamples/DaisySP//Source/Effects/reverbsc.h ****     int    read_pos;          /**< read position */
  16:../../DaisyExamples/DaisySP//Source/Effects/reverbsc.h ****     int    read_pos_frac;     /**< fractional component of read pos */
  17:../../DaisyExamples/DaisySP//Source/Effects/reverbsc.h ****     int    read_pos_frac_inc; /**< increment for fractional */
  18:../../DaisyExamples/DaisySP//Source/Effects/reverbsc.h ****     int    dummy;             /**<  dummy var */
  19:../../DaisyExamples/DaisySP//Source/Effects/reverbsc.h ****     int    seed_val;          /**< randseed */
  20:../../DaisyExamples/DaisySP//Source/Effects/reverbsc.h ****     int    rand_line_cnt;     /**< number of random lines */
  21:../../DaisyExamples/DaisySP//Source/Effects/reverbsc.h ****     float  filter_state;      /**< state of filter */
  22:../../DaisyExamples/DaisySP//Source/Effects/reverbsc.h ****     float *buf;               /**< buffer ptr */
  23:../../DaisyExamples/DaisySP//Source/Effects/reverbsc.h **** } ReverbScDl;
  24:../../DaisyExamples/DaisySP//Source/Effects/reverbsc.h **** 
  25:../../DaisyExamples/DaisySP//Source/Effects/reverbsc.h **** /** Stereo Reverb
  26:../../DaisyExamples/DaisySP//Source/Effects/reverbsc.h **** 
  27:../../DaisyExamples/DaisySP//Source/Effects/reverbsc.h **** Reverb SC:               Ported from csound/soundpipe
  28:../../DaisyExamples/DaisySP//Source/Effects/reverbsc.h **** 
  29:../../DaisyExamples/DaisySP//Source/Effects/reverbsc.h **** Original author(s):        Sean Costello, Istvan Varga
  30:../../DaisyExamples/DaisySP//Source/Effects/reverbsc.h **** 
  31:../../DaisyExamples/DaisySP//Source/Effects/reverbsc.h **** Year:                    1999, 2005
  32:../../DaisyExamples/DaisySP//Source/Effects/reverbsc.h **** 
  33:../../DaisyExamples/DaisySP//Source/Effects/reverbsc.h **** Ported to soundpipe by:  Paul Batchelor
  34:../../DaisyExamples/DaisySP//Source/Effects/reverbsc.h **** 
  35:../../DaisyExamples/DaisySP//Source/Effects/reverbsc.h **** Ported by:                Stephen Hensley
  36:../../DaisyExamples/DaisySP//Source/Effects/reverbsc.h **** */
  37:../../DaisyExamples/DaisySP//Source/Effects/reverbsc.h **** class ReverbSc
  38:../../DaisyExamples/DaisySP//Source/Effects/reverbsc.h **** {
  39:../../DaisyExamples/DaisySP//Source/Effects/reverbsc.h ****   public:
  40:../../DaisyExamples/DaisySP//Source/Effects/reverbsc.h ****     ReverbSc() {}
  41:../../DaisyExamples/DaisySP//Source/Effects/reverbsc.h ****     ~ReverbSc() {}
 221              		.loc 15 41 5 is_stmt 1 view -0
 222              		.cfi_startproc
 223              		@ args = 0, pretend = 0, frame = 0
 224              		@ frame_needed = 0, uses_anonymous_args = 0
 225              		@ link register save eliminated.
 226              		.loc 15 41 18 is_stmt 0 view .LVU46
 227 0000 7047     		bx	lr
 228              		.cfi_endproc
 229              	.LFE4429:
 231              		.weak	_ZN7daisysp8ReverbScD1Ev
 232              		.thumb_set _ZN7daisysp8ReverbScD1Ev,_ZN7daisysp8ReverbScD2Ev
 233              		.section	.text._ZN7daisysp4ToneD2Ev,"axG",%progbits,_ZN7daisysp4ToneD5Ev,comdat
 234              		.align	1
 235              		.p2align 2,,3
 236              		.weak	_ZN7daisysp4ToneD2Ev
 237              		.syntax unified
 238              		.thumb
 239              		.thumb_func
 240              		.fpu fpv5-d16
 242              	_ZN7daisysp4ToneD2Ev:
 243              	.LVL4:
 244              	.LFB4542:
 245              		.file 16 "../../DaisyExamples/DaisySP//Source/Filters/tone.h"
   1:../../DaisyExamples/DaisySP//Source/Filters/tone.h **** #pragma once
   2:../../DaisyExamples/DaisySP//Source/Filters/tone.h **** #ifndef DSY_TONE_H
   3:../../DaisyExamples/DaisySP//Source/Filters/tone.h **** #define DSY_TONE_H
ARM GAS  C:\Users\Estudi\AppData\Local\Temp\ccjMGKtz.s 			page 17


   4:../../DaisyExamples/DaisySP//Source/Filters/tone.h **** 
   5:../../DaisyExamples/DaisySP//Source/Filters/tone.h **** #include <stdint.h>
   6:../../DaisyExamples/DaisySP//Source/Filters/tone.h **** #ifdef __cplusplus
   7:../../DaisyExamples/DaisySP//Source/Filters/tone.h **** 
   8:../../DaisyExamples/DaisySP//Source/Filters/tone.h **** namespace daisysp
   9:../../DaisyExamples/DaisySP//Source/Filters/tone.h **** {
  10:../../DaisyExamples/DaisySP//Source/Filters/tone.h **** /** A first-order recursive low-pass filter with variable frequency response.
  11:../../DaisyExamples/DaisySP//Source/Filters/tone.h **** */
  12:../../DaisyExamples/DaisySP//Source/Filters/tone.h **** class Tone
  13:../../DaisyExamples/DaisySP//Source/Filters/tone.h **** {
  14:../../DaisyExamples/DaisySP//Source/Filters/tone.h ****   public:
  15:../../DaisyExamples/DaisySP//Source/Filters/tone.h ****     Tone() {}
  16:../../DaisyExamples/DaisySP//Source/Filters/tone.h ****     ~Tone() {}
 246              		.loc 16 16 5 is_stmt 1 view -0
 247              		.cfi_startproc
 248              		@ args = 0, pretend = 0, frame = 0
 249              		@ frame_needed = 0, uses_anonymous_args = 0
 250              		@ link register save eliminated.
 251              		.loc 16 16 14 is_stmt 0 view .LVU48
 252 0000 7047     		bx	lr
 253              		.cfi_endproc
 254              	.LFE4542:
 256              		.weak	_ZN7daisysp4ToneD1Ev
 257              		.thumb_set _ZN7daisysp4ToneD1Ev,_ZN7daisysp4ToneD2Ev
 258              		.section	.text._ZN7daisysp9DelayLineIfLj120000EED2Ev,"axG",%progbits,_ZN7daisysp9DelayLineIfLj1200
 259              		.align	1
 260              		.p2align 2,,3
 261              		.weak	_ZN7daisysp9DelayLineIfLj120000EED2Ev
 262              		.syntax unified
 263              		.thumb
 264              		.thumb_func
 265              		.fpu fpv5-d16
 267              	_ZN7daisysp9DelayLineIfLj120000EED2Ev:
 268              	.LVL5:
 269              	.LFB5384:
 270              		.file 17 "../../DaisyExamples/DaisySP//Source/Utility/delayline.h"
   1:../../DaisyExamples/DaisySP//Source/Utility/delayline.h **** #pragma once
   2:../../DaisyExamples/DaisySP//Source/Utility/delayline.h **** #ifndef DSY_DELAY_H
   3:../../DaisyExamples/DaisySP//Source/Utility/delayline.h **** #define DSY_DELAY_H
   4:../../DaisyExamples/DaisySP//Source/Utility/delayline.h **** #include <stdlib.h>
   5:../../DaisyExamples/DaisySP//Source/Utility/delayline.h **** #include <stdint.h>
   6:../../DaisyExamples/DaisySP//Source/Utility/delayline.h **** namespace daisysp
   7:../../DaisyExamples/DaisySP//Source/Utility/delayline.h **** {
   8:../../DaisyExamples/DaisySP//Source/Utility/delayline.h **** /** Simple Delay line.
   9:../../DaisyExamples/DaisySP//Source/Utility/delayline.h **** November 2019
  10:../../DaisyExamples/DaisySP//Source/Utility/delayline.h **** 
  11:../../DaisyExamples/DaisySP//Source/Utility/delayline.h **** Converted to Template December 2019
  12:../../DaisyExamples/DaisySP//Source/Utility/delayline.h **** 
  13:../../DaisyExamples/DaisySP//Source/Utility/delayline.h **** declaration example: (1 second of floats)
  14:../../DaisyExamples/DaisySP//Source/Utility/delayline.h **** 
  15:../../DaisyExamples/DaisySP//Source/Utility/delayline.h **** DelayLine<float, SAMPLE_RATE> del;
  16:../../DaisyExamples/DaisySP//Source/Utility/delayline.h **** 
  17:../../DaisyExamples/DaisySP//Source/Utility/delayline.h **** By: shensley
  18:../../DaisyExamples/DaisySP//Source/Utility/delayline.h **** */
  19:../../DaisyExamples/DaisySP//Source/Utility/delayline.h **** template <typename T, size_t max_size>
  20:../../DaisyExamples/DaisySP//Source/Utility/delayline.h **** class DelayLine
  21:../../DaisyExamples/DaisySP//Source/Utility/delayline.h **** {
ARM GAS  C:\Users\Estudi\AppData\Local\Temp\ccjMGKtz.s 			page 18


  22:../../DaisyExamples/DaisySP//Source/Utility/delayline.h ****   public:
  23:../../DaisyExamples/DaisySP//Source/Utility/delayline.h ****     DelayLine() {}
  24:../../DaisyExamples/DaisySP//Source/Utility/delayline.h ****     ~DelayLine() {}
 271              		.loc 17 24 5 is_stmt 1 view -0
 272              		.cfi_startproc
 273              		@ args = 0, pretend = 0, frame = 0
 274              		@ frame_needed = 0, uses_anonymous_args = 0
 275              		@ link register save eliminated.
 276              		.loc 17 24 19 is_stmt 0 view .LVU50
 277 0000 7047     		bx	lr
 278              		.cfi_endproc
 279              	.LFE5384:
 281              		.weak	_ZN7daisysp9DelayLineIfLj120000EED1Ev
 282              		.thumb_set _ZN7daisysp9DelayLineIfLj120000EED1Ev,_ZN7daisysp9DelayLineIfLj120000EED2Ev
 283              		.section	.text.startup.main,"ax",%progbits
 284              		.align	1
 285              		.p2align 2,,3
 286              		.global	main
 287              		.syntax unified
 288              		.thumb
 289              		.thumb_func
 290              		.fpu fpv5-d16
 292              	main:
 293              	.LFB4796:
 294              		.file 18 "MultiFX.cpp"
   1:MultiFX.cpp   **** #include "daisy_pod.h"
   2:MultiFX.cpp   **** #include "daisysp.h"
   3:MultiFX.cpp   **** 
   4:MultiFX.cpp   **** // Set max delay time to 0.75 of samplerate.
   5:MultiFX.cpp   **** #define MAX_DELAY static_cast<size_t>(48000 * 2.5f)
   6:MultiFX.cpp   **** #define REV 0
   7:MultiFX.cpp   **** #define DEL 1
   8:MultiFX.cpp   **** #define CRU 2
   9:MultiFX.cpp   **** 
  10:MultiFX.cpp   **** 
  11:MultiFX.cpp   **** using namespace daisysp;
  12:MultiFX.cpp   **** using namespace daisy;
  13:MultiFX.cpp   **** 
  14:MultiFX.cpp   **** static DaisyPod pod;
  15:MultiFX.cpp   **** 
  16:MultiFX.cpp   **** static Svf                                       filtl, filtr;
  17:MultiFX.cpp   **** static ReverbSc                                  rev;
  18:MultiFX.cpp   **** static DelayLine<float, MAX_DELAY> DSY_SDRAM_BSS dell;
  19:MultiFX.cpp   **** static DelayLine<float, MAX_DELAY> DSY_SDRAM_BSS delr;
  20:MultiFX.cpp   **** static Tone                                      tone;
  21:MultiFX.cpp   **** static Parameter deltime, cutoffParam, crushrate;
  22:MultiFX.cpp   **** int              mode = REV;
  23:MultiFX.cpp   **** 
  24:MultiFX.cpp   **** float currentDelay, feedback, delayTarget, cutoff;
  25:MultiFX.cpp   **** 
  26:MultiFX.cpp   **** int   crushmod, crushcount;
  27:MultiFX.cpp   **** float crushsl, crushsr;
  28:MultiFX.cpp   **** float drywet = 0.5f;
  29:MultiFX.cpp   **** 
  30:MultiFX.cpp   **** 
  31:MultiFX.cpp   **** //Helper functions
  32:MultiFX.cpp   **** void Controls();
ARM GAS  C:\Users\Estudi\AppData\Local\Temp\ccjMGKtz.s 			page 19


  33:MultiFX.cpp   **** 
  34:MultiFX.cpp   **** void GetReverbSample(float &outl, float &outr, float inl, float inr);
  35:MultiFX.cpp   **** 
  36:MultiFX.cpp   **** void GetDelaySample(float &outl, float &outr, float inl, float inr);
  37:MultiFX.cpp   **** 
  38:MultiFX.cpp   **** void GetCrushSample(float &outl, float &outr, float inl, float inr);
  39:MultiFX.cpp   **** 
  40:MultiFX.cpp   **** 
  41:MultiFX.cpp   **** void AudioCallback(AudioHandle::InterleavingInputBuffer  in,
  42:MultiFX.cpp   ****                    AudioHandle::InterleavingOutputBuffer out,
  43:MultiFX.cpp   ****                    size_t                                size)
  44:MultiFX.cpp   **** {
  45:MultiFX.cpp   ****     float outl, outr, inl, inr;
  46:MultiFX.cpp   **** 
  47:MultiFX.cpp   ****     Controls();
  48:MultiFX.cpp   **** 
  49:MultiFX.cpp   ****     //audio
  50:MultiFX.cpp   ****     for(size_t i = 0; i < size; i += 2)
  51:MultiFX.cpp   ****     {
  52:MultiFX.cpp   ****         inl = in[i];
  53:MultiFX.cpp   ****         inr = in[i + 1];
  54:MultiFX.cpp   **** 
  55:MultiFX.cpp   ****         switch(mode)
  56:MultiFX.cpp   ****         {
  57:MultiFX.cpp   ****             case REV: GetReverbSample(outl, outr, inl, inr); break;
  58:MultiFX.cpp   ****             case DEL: GetDelaySample(outl, outr, inl, inr); break;
  59:MultiFX.cpp   ****             case CRU: GetCrushSample(outl, outr, inl, inr); break;
  60:MultiFX.cpp   ****             default: outl = outr = 0;
  61:MultiFX.cpp   ****         }
  62:MultiFX.cpp   **** 
  63:MultiFX.cpp   ****         // left out
  64:MultiFX.cpp   ****         out[i] = outl;
  65:MultiFX.cpp   **** 
  66:MultiFX.cpp   ****         // right out
  67:MultiFX.cpp   ****         out[i + 1] = outr;
  68:MultiFX.cpp   ****     }
  69:MultiFX.cpp   **** }
  70:MultiFX.cpp   **** 
  71:MultiFX.cpp   **** int main(void)
  72:MultiFX.cpp   **** {
 295              		.loc 18 72 1 is_stmt 1 view -0
 296              		.cfi_startproc
 297              		@ args = 0, pretend = 0, frame = 32
 298              		@ frame_needed = 0, uses_anonymous_args = 0
  73:MultiFX.cpp   ****     // initialize pod hardware and oscillator daisysp module
  74:MultiFX.cpp   ****     float sample_rate;
 299              		.loc 18 74 5 view .LVU52
  75:MultiFX.cpp   **** 
  76:MultiFX.cpp   ****     //Inits and sample rate
  77:MultiFX.cpp   ****     pod.Init();
 300              		.loc 18 77 5 view .LVU53
  72:MultiFX.cpp   ****     // initialize pod hardware and oscillator daisysp module
 301              		.loc 18 72 1 is_stmt 0 view .LVU54
 302 0000 2DE9F047 		push	{r4, r5, r6, r7, r8, r9, r10, lr}
 303              		.cfi_def_cfa_offset 32
 304              		.cfi_offset 4, -32
 305              		.cfi_offset 5, -28
ARM GAS  C:\Users\Estudi\AppData\Local\Temp\ccjMGKtz.s 			page 20


 306              		.cfi_offset 6, -24
 307              		.cfi_offset 7, -20
 308              		.cfi_offset 8, -16
 309              		.cfi_offset 9, -12
 310              		.cfi_offset 10, -8
 311              		.cfi_offset 14, -4
 312              		.loc 18 77 13 view .LVU55
 313 0004 0021     		movs	r1, #0
 314 0006 6248     		ldr	r0, .L11+8
  78:MultiFX.cpp   ****     pod.SetAudioBlockSize(4);
  79:MultiFX.cpp   ****     sample_rate = pod.AudioSampleRate();
  80:MultiFX.cpp   ****     filtl.Init(sample_rate);
  81:MultiFX.cpp   ****     filtr.Init(sample_rate);
  82:MultiFX.cpp   ****     rev.Init(sample_rate);
 315              		.loc 18 82 13 view .LVU56
 316 0008 624E     		ldr	r6, .L11+12
 317              	.LBB390:
 318              	.LBB391:
 319              	.LBB392:
  25:../../DaisyExamples/DaisySP//Source/Utility/delayline.h ****     /** initializes the delay line by clearing the values within, and setting delay to 1 sample.
  26:../../DaisyExamples/DaisySP//Source/Utility/delayline.h ****     */
  27:../../DaisyExamples/DaisySP//Source/Utility/delayline.h ****     void Init() { Reset(); }
  28:../../DaisyExamples/DaisySP//Source/Utility/delayline.h ****     /** clears buffer, sets write ptr to 0, and delay to 1 sample.
  29:../../DaisyExamples/DaisySP//Source/Utility/delayline.h ****     */
  30:../../DaisyExamples/DaisySP//Source/Utility/delayline.h ****     void Reset()
  31:../../DaisyExamples/DaisySP//Source/Utility/delayline.h ****     {
  32:../../DaisyExamples/DaisySP//Source/Utility/delayline.h ****         for(size_t i = 0; i < max_size; i++)
  33:../../DaisyExamples/DaisySP//Source/Utility/delayline.h ****         {
  34:../../DaisyExamples/DaisySP//Source/Utility/delayline.h ****             line_[i] = T(0);
  35:../../DaisyExamples/DaisySP//Source/Utility/delayline.h ****         }
  36:../../DaisyExamples/DaisySP//Source/Utility/delayline.h ****         write_ptr_ = 0;
  37:../../DaisyExamples/DaisySP//Source/Utility/delayline.h ****         delay_     = 1;
 320              		.loc 17 37 20 view .LVU57
 321 000a 0125     		movs	r5, #1
 322              	.LBB393:
  34:../../DaisyExamples/DaisySP//Source/Utility/delayline.h ****         }
 323              		.loc 17 34 22 view .LVU58
 324 000c DFF8D8A1 		ldr	r10, .L11+96
 325              	.LBE393:
 326              	.LBE392:
 327              	.LBE391:
 328              	.LBE390:
 329              	.LBB400:
 330              	.LBB401:
 331              	.LBB402:
 332              	.LBB403:
 333 0010 DFF8D891 		ldr	r9, .L11+100
 334              	.LBE403:
 335              	.LBE402:
 336              	.LBE401:
 337              	.LBE400:
  72:MultiFX.cpp   ****     // initialize pod hardware and oscillator daisysp module
 338              		.loc 18 72 1 view .LVU59
 339 0014 2DED028B 		vpush.64	{d8}
 340              		.cfi_def_cfa_offset 40
 341              		.cfi_offset 80, -40
 342              		.cfi_offset 81, -36
ARM GAS  C:\Users\Estudi\AppData\Local\Temp\ccjMGKtz.s 			page 21


 343 0018 88B0     		sub	sp, sp, #32
 344              		.cfi_def_cfa_offset 72
  77:MultiFX.cpp   ****     pod.SetAudioBlockSize(4);
 345              		.loc 18 77 13 view .LVU60
 346 001a FFF7FEFF 		bl	_ZN5daisy8DaisyPod4InitEb
 347              	.LVL6:
  78:MultiFX.cpp   ****     sample_rate = pod.AudioSampleRate();
 348              		.loc 18 78 5 is_stmt 1 view .LVU61
  78:MultiFX.cpp   ****     sample_rate = pod.AudioSampleRate();
 349              		.loc 18 78 26 is_stmt 0 view .LVU62
 350 001e 0421     		movs	r1, #4
 351 0020 5B48     		ldr	r0, .L11+8
 352 0022 FFF7FEFF 		bl	_ZN5daisy8DaisyPod17SetAudioBlockSizeEj
 353              	.LVL7:
  79:MultiFX.cpp   ****     filtl.Init(sample_rate);
 354              		.loc 18 79 5 is_stmt 1 view .LVU63
  79:MultiFX.cpp   ****     filtl.Init(sample_rate);
 355              		.loc 18 79 38 is_stmt 0 view .LVU64
 356 0026 5A48     		ldr	r0, .L11+8
 357 0028 FFF7FEFF 		bl	_ZN5daisy8DaisyPod15AudioSampleRateEv
 358              	.LVL8:
 359 002c B0EE408A 		vmov.f32	s16, s0
 360              	.LVL9:
  80:MultiFX.cpp   ****     filtr.Init(sample_rate);
 361              		.loc 18 80 5 is_stmt 1 view .LVU65
  80:MultiFX.cpp   ****     filtr.Init(sample_rate);
 362              		.loc 18 80 15 is_stmt 0 view .LVU66
 363 0030 5948     		ldr	r0, .L11+16
 364 0032 FFF7FEFF 		bl	_ZN7daisysp3Svf4InitEf
 365              	.LVL10:
  81:MultiFX.cpp   ****     rev.Init(sample_rate);
 366              		.loc 18 81 5 is_stmt 1 view .LVU67
  81:MultiFX.cpp   ****     rev.Init(sample_rate);
 367              		.loc 18 81 15 is_stmt 0 view .LVU68
 368 0036 5948     		ldr	r0, .L11+20
 369 0038 B0EE480A 		vmov.f32	s0, s16
 370 003c FFF7FEFF 		bl	_ZN7daisysp3Svf4InitEf
 371              	.LVL11:
 372              		.loc 18 82 5 is_stmt 1 view .LVU69
 373              		.loc 18 82 13 is_stmt 0 view .LVU70
 374 0040 B0EE480A 		vmov.f32	s0, s16
 375 0044 3046     		mov	r0, r6
 376 0046 FFF7FEFF 		bl	_ZN7daisysp8ReverbSc4InitEf
 377              	.LVL12:
  83:MultiFX.cpp   ****     dell.Init();
 378              		.loc 18 83 5 is_stmt 1 view .LVU71
 379              	.LBB412:
 380              	.LBI390:
  27:../../DaisyExamples/DaisySP//Source/Utility/delayline.h ****     /** clears buffer, sets write ptr to 0, and delay to 1 sample.
 381              		.loc 17 27 10 view .LVU72
 382              	.LBB398:
 383              	.LBI391:
  30:../../DaisyExamples/DaisySP//Source/Utility/delayline.h ****     {
 384              		.loc 17 30 10 view .LVU73
 385              	.LBB396:
 386              	.LBB394:
  32:../../DaisyExamples/DaisySP//Source/Utility/delayline.h ****         {
ARM GAS  C:\Users\Estudi\AppData\Local\Temp\ccjMGKtz.s 			page 22


 387              		.loc 17 32 29 view .LVU74
  34:../../DaisyExamples/DaisySP//Source/Utility/delayline.h ****         }
 388              		.loc 17 34 22 is_stmt 0 view .LVU75
 389 004a 0021     		movs	r1, #0
 390 004c 544A     		ldr	r2, .L11+24
 391 004e 5046     		mov	r0, r10
 392              	.LBE394:
  36:../../DaisyExamples/DaisySP//Source/Utility/delayline.h ****         delay_     = 1;
 393              		.loc 17 36 20 view .LVU76
 394 0050 0C46     		mov	r4, r1
 395              	.LBB395:
  34:../../DaisyExamples/DaisySP//Source/Utility/delayline.h ****         }
 396              		.loc 17 34 22 view .LVU77
 397 0052 FFF7FEFF 		bl	memset
 398              	.LVL13:
  34:../../DaisyExamples/DaisySP//Source/Utility/delayline.h ****         }
 399              		.loc 17 34 22 view .LVU78
 400              	.LBE395:
 401              	.LBE396:
 402              	.LBE398:
 403              	.LBE412:
 404              	.LBB413:
 405              	.LBB409:
 406              	.LBB406:
 407              	.LBB404:
 408 0056 524A     		ldr	r2, .L11+24
 409 0058 4846     		mov	r0, r9
 410 005a 2146     		mov	r1, r4
 411              	.LBE404:
 412              	.LBE406:
 413              	.LBE409:
 414              	.LBE413:
 415              	.LBB414:
 416              	.LBB399:
 417              	.LBB397:
 418              		.loc 17 37 20 view .LVU79
 419 005c 4AE90245 		strd	r4, r5, [r10, #-8]
 420              	.LVL14:
 421              		.loc 17 37 20 view .LVU80
 422              	.LBE397:
 423              	.LBE399:
 424              	.LBE414:
 425              	.LBB415:
 426              	.LBB410:
 427              	.LBB407:
 428              	.LBB405:
  32:../../DaisyExamples/DaisySP//Source/Utility/delayline.h ****         {
 429              		.loc 17 32 29 is_stmt 1 view .LVU81
  34:../../DaisyExamples/DaisySP//Source/Utility/delayline.h ****         }
 430              		.loc 17 34 22 is_stmt 0 view .LVU82
 431 0060 FFF7FEFF 		bl	memset
 432              	.LVL15:
  34:../../DaisyExamples/DaisySP//Source/Utility/delayline.h ****         }
 433              		.loc 17 34 22 view .LVU83
 434              	.LBE405:
 435              	.LBE407:
 436              	.LBE410:
ARM GAS  C:\Users\Estudi\AppData\Local\Temp\ccjMGKtz.s 			page 23


 437              	.LBE415:
  84:MultiFX.cpp   ****     delr.Init();
  85:MultiFX.cpp   ****     tone.Init(sample_rate);
 438              		.loc 18 85 14 view .LVU84
 439 0064 B0EE480A 		vmov.f32	s0, s16
 440 0068 4E48     		ldr	r0, .L11+28
 441              	.LBB416:
 442              	.LBB411:
 443              	.LBB408:
 444              		.loc 17 37 20 view .LVU85
 445 006a 49E90245 		strd	r4, r5, [r9, #-8]
 446              	.LBE408:
 447              	.LBE411:
 448              	.LBE416:
 449              		.loc 18 85 5 is_stmt 1 view .LVU86
 450              		.loc 18 85 14 is_stmt 0 view .LVU87
 451 006e FFF7FEFF 		bl	_ZN7daisysp4Tone4InitEf
 452              	.LVL16:
  86:MultiFX.cpp   **** 
  87:MultiFX.cpp   ****     //fixed hpf before the reverb
  88:MultiFX.cpp   ****     filtl.SetDrive(.5f);
 453              		.loc 18 88 5 is_stmt 1 view .LVU88
 454              		.loc 18 88 19 is_stmt 0 view .LVU89
 455 0072 B6EE000A 		vmov.f32	s0, #5.0e-1
 456 0076 4848     		ldr	r0, .L11+16
  89:MultiFX.cpp   ****     filtl.SetRes(0.7f);
  90:MultiFX.cpp   ****     filtl.SetFreq(120.f);
  91:MultiFX.cpp   ****     filtr.SetDrive(.5f);
  92:MultiFX.cpp   ****     filtr.SetRes(0.7f);
  93:MultiFX.cpp   ****     filtr.SetFreq(120.f);
  94:MultiFX.cpp   **** 
  95:MultiFX.cpp   ****     //set parameters
  96:MultiFX.cpp   ****     deltime.Init(pod.knob1, sample_rate * .05, MAX_DELAY, deltime.LOGARITHMIC);
 457              		.loc 18 96 22 view .LVU90
 458 0078 6D46     		mov	r5, sp
  88:MultiFX.cpp   ****     filtl.SetRes(0.7f);
 459              		.loc 18 88 19 view .LVU91
 460 007a FFF7FEFF 		bl	_ZN7daisysp3Svf8SetDriveEf
 461              	.LVL17:
  89:MultiFX.cpp   ****     filtl.SetRes(0.7f);
 462              		.loc 18 89 5 is_stmt 1 view .LVU92
  89:MultiFX.cpp   ****     filtl.SetRes(0.7f);
 463              		.loc 18 89 17 is_stmt 0 view .LVU93
 464 007e 9FED4A0A 		vldr.32	s0, .L11+32
 465 0082 4548     		ldr	r0, .L11+16
 466 0084 FFF7FEFF 		bl	_ZN7daisysp3Svf6SetResEf
 467              	.LVL18:
  90:MultiFX.cpp   ****     filtr.SetDrive(.5f);
 468              		.loc 18 90 5 is_stmt 1 view .LVU94
  90:MultiFX.cpp   ****     filtr.SetDrive(.5f);
 469              		.loc 18 90 18 is_stmt 0 view .LVU95
 470 0088 9FED480A 		vldr.32	s0, .L11+36
 471 008c 4248     		ldr	r0, .L11+16
 472 008e FFF7FEFF 		bl	_ZN7daisysp3Svf7SetFreqEf
 473              	.LVL19:
  91:MultiFX.cpp   ****     filtr.SetRes(0.7f);
 474              		.loc 18 91 5 is_stmt 1 view .LVU96
ARM GAS  C:\Users\Estudi\AppData\Local\Temp\ccjMGKtz.s 			page 24


  91:MultiFX.cpp   ****     filtr.SetRes(0.7f);
 475              		.loc 18 91 19 is_stmt 0 view .LVU97
 476 0092 B6EE000A 		vmov.f32	s0, #5.0e-1
 477 0096 4148     		ldr	r0, .L11+20
 478 0098 FFF7FEFF 		bl	_ZN7daisysp3Svf8SetDriveEf
 479              	.LVL20:
  92:MultiFX.cpp   ****     filtr.SetFreq(120.f);
 480              		.loc 18 92 5 is_stmt 1 view .LVU98
  92:MultiFX.cpp   ****     filtr.SetFreq(120.f);
 481              		.loc 18 92 17 is_stmt 0 view .LVU99
 482 009c 9FED420A 		vldr.32	s0, .L11+32
 483 00a0 3E48     		ldr	r0, .L11+20
 484 00a2 FFF7FEFF 		bl	_ZN7daisysp3Svf6SetResEf
 485              	.LVL21:
  93:MultiFX.cpp   **** 
 486              		.loc 18 93 5 is_stmt 1 view .LVU100
  93:MultiFX.cpp   **** 
 487              		.loc 18 93 18 is_stmt 0 view .LVU101
 488 00a6 9FED410A 		vldr.32	s0, .L11+36
 489 00aa 3C48     		ldr	r0, .L11+20
 490 00ac FFF7FEFF 		bl	_ZN7daisysp3Svf7SetFreqEf
 491              	.LVL22:
 492              		.loc 18 96 5 is_stmt 1 view .LVU102
 493              		.loc 18 96 29 is_stmt 0 view .LVU103
 494 00b0 B7EEC87A 		vcvt.f64.f32	d7, s16
 495              		.loc 18 96 22 view .LVU104
 496 00b4 3E4C     		ldr	r4, .L11+40
 497              		.loc 18 96 17 view .LVU105
 498 00b6 DFED3F0A 		vldr.32	s1, .L11+44
 499              		.loc 18 96 41 view .LVU106
 500 00ba 9FED336B 		vldr.64	d6, .L11
 501              		.loc 18 96 22 view .LVU107
 502 00be 0FCC     		ldmia	r4!, {r0, r1, r2, r3}
 503              		.loc 18 96 41 view .LVU108
 504 00c0 27EE067B 		vmul.f64	d7, d7, d6
 505              		.loc 18 96 22 view .LVU109
 506 00c4 0FC5     		stmia	r5!, {r0, r1, r2, r3}
 507 00c6 94E80F00 		ldm	r4, {r0, r1, r2, r3}
 508              		.loc 18 96 17 view .LVU110
 509 00ca B7EEC70B 		vcvt.f32.f64	s0, d7
 510              		.loc 18 96 22 view .LVU111
 511 00ce 85E80F00 		stm	r5, {r0, r1, r2, r3}
 512              		.loc 18 96 17 view .LVU112
 513 00d2 0222     		movs	r2, #2
 514 00d4 6946     		mov	r1, sp
 515 00d6 3848     		ldr	r0, .L11+48
 516 00d8 FFF7FEFF 		bl	_ZN5daisy9Parameter4InitENS_13AnalogControlEffNS0_5CurveE
 517              	.LVL23:
 518              	.LBB417:
 519              	.LBI417:
 520              		.loc 2 23 5 is_stmt 1 view .LVU113
 521              		.loc 2 23 5 is_stmt 0 view .LVU114
 522              	.LBE417:
  97:MultiFX.cpp   ****     cutoffParam.Init(pod.knob1, 500, 20000, cutoffParam.LOGARITHMIC);
 523              		.loc 18 97 5 is_stmt 1 view .LVU115
 524              		.loc 18 97 26 is_stmt 0 view .LVU116
 525 00dc A4F1100E 		sub	lr, r4, #16
ARM GAS  C:\Users\Estudi\AppData\Local\Temp\ccjMGKtz.s 			page 25


 526 00e0 EC46     		mov	ip, sp
 527              		.loc 18 97 21 view .LVU117
 528 00e2 DFED360A 		vldr.32	s1, .L11+52
 529 00e6 9FED360A 		vldr.32	s0, .L11+56
 530              		.loc 18 97 26 view .LVU118
 531 00ea BEE80F00 		ldmia	lr!, {r0, r1, r2, r3}
 532 00ee ACE80F00 		stmia	ip!, {r0, r1, r2, r3}
 533 00f2 94E80F00 		ldm	r4, {r0, r1, r2, r3}
 534 00f6 85E80F00 		stm	r5, {r0, r1, r2, r3}
 535              		.loc 18 97 21 view .LVU119
 536 00fa 0222     		movs	r2, #2
 537 00fc 6946     		mov	r1, sp
 538 00fe 3148     		ldr	r0, .L11+60
 539 0100 FFF7FEFF 		bl	_ZN5daisy9Parameter4InitENS_13AnalogControlEffNS0_5CurveE
 540              	.LVL24:
 541              	.LBB418:
 542              	.LBI418:
 543              		.loc 2 23 5 is_stmt 1 view .LVU120
 544              		.loc 2 23 5 is_stmt 0 view .LVU121
 545              	.LBE418:
  98:MultiFX.cpp   ****     crushrate.Init(pod.knob2, 1, 50, crushrate.LOGARITHMIC);
 546              		.loc 18 98 5 is_stmt 1 view .LVU122
 547              		.loc 18 98 24 is_stmt 0 view .LVU123
 548 0104 04F1100C 		add	ip, r4, #16
 549 0108 EE46     		mov	lr, sp
 550              		.loc 18 98 19 view .LVU124
 551 010a B7EE000A 		vmov.f32	s0, #1.0e+0
 552 010e DFED2E0A 		vldr.32	s1, .L11+64
 553              		.loc 18 98 24 view .LVU125
 554 0112 BCE80F00 		ldmia	ip!, {r0, r1, r2, r3}
 555 0116 AEE80F00 		stmia	lr!, {r0, r1, r2, r3}
 556 011a 9CE80F00 		ldm	ip, {r0, r1, r2, r3}
 557 011e 85E80F00 		stm	r5, {r0, r1, r2, r3}
 558              		.loc 18 98 19 view .LVU126
 559 0122 6946     		mov	r1, sp
 560 0124 0222     		movs	r2, #2
 561 0126 2948     		ldr	r0, .L11+68
 562 0128 FFF7FEFF 		bl	_ZN5daisy9Parameter4InitENS_13AnalogControlEffNS0_5CurveE
 563              	.LVL25:
 564              	.LBB419:
 565              	.LBI419:
 566              		.loc 2 23 5 is_stmt 1 view .LVU127
 567              		.loc 2 23 5 is_stmt 0 view .LVU128
 568              	.LBE419:
  99:MultiFX.cpp   **** 
 100:MultiFX.cpp   ****     //reverb parameters
 101:MultiFX.cpp   ****     rev.SetLpFreq(18000.0f);
 569              		.loc 18 101 5 is_stmt 1 view .LVU129
 570              	.LBB420:
 571              	.LBI420:
  42:../../DaisyExamples/DaisySP//Source/Effects/reverbsc.h ****     /** Initializes the reverb module, and sets the sample_rate at which the Process function will 
  43:../../DaisyExamples/DaisySP//Source/Effects/reverbsc.h ****         Returns 0 if all good, or 1 if it runs out of delay times exceed maximum allowed.
  44:../../DaisyExamples/DaisySP//Source/Effects/reverbsc.h ****     */
  45:../../DaisyExamples/DaisySP//Source/Effects/reverbsc.h ****     int Init(float sample_rate);
  46:../../DaisyExamples/DaisySP//Source/Effects/reverbsc.h **** 
  47:../../DaisyExamples/DaisySP//Source/Effects/reverbsc.h ****     /** Process the input through the reverb, and updates values of out1, and out2 with the new pro
  48:../../DaisyExamples/DaisySP//Source/Effects/reverbsc.h ****     */
ARM GAS  C:\Users\Estudi\AppData\Local\Temp\ccjMGKtz.s 			page 26


  49:../../DaisyExamples/DaisySP//Source/Effects/reverbsc.h ****     int Process(const float &in1, const float &in2, float *out1, float *out2);
  50:../../DaisyExamples/DaisySP//Source/Effects/reverbsc.h **** 
  51:../../DaisyExamples/DaisySP//Source/Effects/reverbsc.h ****     /** controls the reverb time. reverb tail becomes infinite when set to 1.0
  52:../../DaisyExamples/DaisySP//Source/Effects/reverbsc.h ****         \param fb - sets reverb time. range: 0.0 to 1.0
  53:../../DaisyExamples/DaisySP//Source/Effects/reverbsc.h ****     */
  54:../../DaisyExamples/DaisySP//Source/Effects/reverbsc.h ****     inline void SetFeedback(const float &fb) { feedback_ = fb; }
  55:../../DaisyExamples/DaisySP//Source/Effects/reverbsc.h ****     /** controls the internal dampening filter's cutoff frequency.
  56:../../DaisyExamples/DaisySP//Source/Effects/reverbsc.h ****         \param freq - low pass frequency. range: 0.0 to sample_rate / 2
  57:../../DaisyExamples/DaisySP//Source/Effects/reverbsc.h ****     */
  58:../../DaisyExamples/DaisySP//Source/Effects/reverbsc.h ****     inline void SetLpFreq(const float &freq) { lpfreq_ = freq; }
 572              		.loc 15 58 17 view .LVU130
 573              	.LBB421:
 574              		.loc 15 58 48 view .LVU131
 575              	.LBE421:
 576              	.LBE420:
 102:MultiFX.cpp   ****     rev.SetFeedback(0.85f);
 103:MultiFX.cpp   **** 
 104:MultiFX.cpp   ****     //delay parameters
 105:MultiFX.cpp   ****     currentDelay = delayTarget = sample_rate * 0.75f;
 577              		.loc 18 105 46 is_stmt 0 view .LVU132
 578 012c F6EE087A 		vmov.f32	s15, #7.5e-1
 579              	.LBB424:
 580              	.LBB425:
  38:../../DaisyExamples/DaisySP//Source/Utility/delayline.h ****     }
  39:../../DaisyExamples/DaisySP//Source/Utility/delayline.h **** 
  40:../../DaisyExamples/DaisySP//Source/Utility/delayline.h ****     /** sets the delay time in samples
  41:../../DaisyExamples/DaisySP//Source/Utility/delayline.h ****         If a float is passed in, a fractional component will be calculated for interpolating the de
  42:../../DaisyExamples/DaisySP//Source/Utility/delayline.h ****     */
  43:../../DaisyExamples/DaisySP//Source/Utility/delayline.h ****     inline void SetDelay(size_t delay)
  44:../../DaisyExamples/DaisySP//Source/Utility/delayline.h ****     {
  45:../../DaisyExamples/DaisySP//Source/Utility/delayline.h ****         frac_  = 0.0f;
  46:../../DaisyExamples/DaisySP//Source/Utility/delayline.h ****         delay_ = delay < max_size ? delay : max_size - 1;
  47:../../DaisyExamples/DaisySP//Source/Utility/delayline.h ****     }
  48:../../DaisyExamples/DaisySP//Source/Utility/delayline.h **** 
  49:../../DaisyExamples/DaisySP//Source/Utility/delayline.h ****     /** sets the delay time in samples
  50:../../DaisyExamples/DaisySP//Source/Utility/delayline.h ****         If a float is passed in, a fractional component will be calculated for interpolating the de
  51:../../DaisyExamples/DaisySP//Source/Utility/delayline.h ****     */
  52:../../DaisyExamples/DaisySP//Source/Utility/delayline.h ****     inline void SetDelay(float delay)
  53:../../DaisyExamples/DaisySP//Source/Utility/delayline.h ****     {
  54:../../DaisyExamples/DaisySP//Source/Utility/delayline.h ****         int32_t int_delay = static_cast<int32_t>(delay);
  55:../../DaisyExamples/DaisySP//Source/Utility/delayline.h ****         frac_             = delay - static_cast<float>(int_delay);
  56:../../DaisyExamples/DaisySP//Source/Utility/delayline.h ****         delay_ = static_cast<size_t>(int_delay) < max_size ? int_delay
 581              		.loc 17 56 60 view .LVU133
 582 0130 274B     		ldr	r3, .L11+72
 583              	.LBE425:
 584              	.LBE424:
 106:MultiFX.cpp   ****     dell.SetDelay(currentDelay);
 107:MultiFX.cpp   ****     delr.SetDelay(currentDelay);
 108:MultiFX.cpp   **** 
 109:MultiFX.cpp   ****     // start callback
 110:MultiFX.cpp   ****     pod.StartAdc();
 585              		.loc 18 110 17 view .LVU134
 586 0132 A4F17400 		sub	r0, r4, #116
 105:MultiFX.cpp   ****     dell.SetDelay(currentDelay);
 587              		.loc 18 105 46 view .LVU135
 588 0136 28EE278A 		vmul.f32	s16, s16, s15
 589              	.LVL26:
ARM GAS  C:\Users\Estudi\AppData\Local\Temp\ccjMGKtz.s 			page 27


 590              	.LBB429:
 591              	.LBB426:
  54:../../DaisyExamples/DaisySP//Source/Utility/delayline.h ****         frac_             = delay - static_cast<float>(int_delay);
 592              		.loc 17 54 17 view .LVU136
 593 013a FDEEC87A 		vcvt.s32.f32	s15, s16
 594              		.loc 17 56 60 view .LVU137
 595 013e 17EE902A 		vmov	r2, s15	@ int
  55:../../DaisyExamples/DaisySP//Source/Utility/delayline.h ****         delay_ = static_cast<size_t>(int_delay) < max_size ? int_delay
 596              		.loc 17 55 37 view .LVU138
 597 0142 B8EEE77A 		vcvt.f32.s32	s14, s15
 598              		.loc 17 56 60 view .LVU139
 599 0146 9A42     		cmp	r2, r3
  55:../../DaisyExamples/DaisySP//Source/Utility/delayline.h ****         delay_ = static_cast<size_t>(int_delay) < max_size ? int_delay
 600              		.loc 17 55 35 view .LVU140
 601 0148 38EE477A 		vsub.f32	s14, s16, s14
 602              		.loc 17 56 60 view .LVU141
 603 014c 28BF     		it	cs
 604 014e 1A46     		movcs	r2, r3
 605              	.LBE426:
 606              	.LBE429:
 607              	.LBB430:
 608              	.LBB431:
  54:../../DaisyExamples/DaisySP//Source/Effects/reverbsc.h ****     /** controls the internal dampening filter's cutoff frequency.
 609              		.loc 15 54 58 view .LVU142
 610 0150 204B     		ldr	r3, .L11+76
 611              	.LBE431:
 612              	.LBE430:
 613              	.LBB434:
 614              	.LBB427:
 615              		.loc 17 56 16 view .LVU143
 616 0152 4AF8042C 		str	r2, [r10, #-4]
 617              	.LBE427:
 618              	.LBE434:
 619              	.LBB435:
 620              	.LBB436:
 621 0156 49F8042C 		str	r2, [r9, #-4]
 622              	.LBE436:
 623              	.LBE435:
 624              	.LBB438:
 625              	.LBB422:
 626              		.loc 15 58 56 view .LVU144
 627 015a 1F4A     		ldr	r2, .L11+80
 628              	.LBE422:
 629              	.LBE438:
 630              	.LBB439:
 631              	.LBB432:
  54:../../DaisyExamples/DaisySP//Source/Effects/reverbsc.h ****     /** controls the internal dampening filter's cutoff frequency.
 632              		.loc 15 54 58 view .LVU145
 633 015c 3360     		str	r3, [r6]	@ float
 634              	.LBE432:
 635              	.LBE439:
 636              	.LBB440:
 637              	.LBB423:
 638              		.loc 15 58 56 view .LVU146
 639 015e 7260     		str	r2, [r6, #4]	@ float
 640              	.LVL27:
 641              		.loc 15 58 56 view .LVU147
ARM GAS  C:\Users\Estudi\AppData\Local\Temp\ccjMGKtz.s 			page 28


 642              	.LBE423:
 643              	.LBE440:
 102:MultiFX.cpp   **** 
 644              		.loc 18 102 5 is_stmt 1 view .LVU148
 645              	.LBB441:
 646              	.LBI430:
  54:../../DaisyExamples/DaisySP//Source/Effects/reverbsc.h ****     /** controls the internal dampening filter's cutoff frequency.
 647              		.loc 15 54 17 view .LVU149
 648              	.LBB433:
  54:../../DaisyExamples/DaisySP//Source/Effects/reverbsc.h ****     /** controls the internal dampening filter's cutoff frequency.
 649              		.loc 15 54 48 view .LVU150
  54:../../DaisyExamples/DaisySP//Source/Effects/reverbsc.h ****     /** controls the internal dampening filter's cutoff frequency.
 650              		.loc 15 54 48 is_stmt 0 view .LVU151
 651              	.LBE433:
 652              	.LBE441:
 105:MultiFX.cpp   ****     dell.SetDelay(currentDelay);
 653              		.loc 18 105 5 is_stmt 1 view .LVU152
 105:MultiFX.cpp   ****     dell.SetDelay(currentDelay);
 654              		.loc 18 105 18 is_stmt 0 view .LVU153
 655 0160 1E4B     		ldr	r3, .L11+84
 105:MultiFX.cpp   ****     dell.SetDelay(currentDelay);
 656              		.loc 18 105 32 view .LVU154
 657 0162 1F4A     		ldr	r2, .L11+88
 658              	.LBB442:
 659              	.LBB428:
  55:../../DaisyExamples/DaisySP//Source/Utility/delayline.h ****         delay_ = static_cast<size_t>(int_delay) < max_size ? int_delay
 660              		.loc 17 55 27 view .LVU155
 661 0164 0AED037A 		vstr.32	s14, [r10, #-12]
 662              	.LBE428:
 663              	.LBE442:
 664              	.LBB443:
 665              	.LBB437:
 666 0168 09ED037A 		vstr.32	s14, [r9, #-12]
 667              	.LBE437:
 668              	.LBE443:
 105:MultiFX.cpp   ****     dell.SetDelay(currentDelay);
 669              		.loc 18 105 32 view .LVU156
 670 016c 82ED008A 		vstr.32	s16, [r2]
 105:MultiFX.cpp   ****     dell.SetDelay(currentDelay);
 671              		.loc 18 105 18 view .LVU157
 672 0170 83ED008A 		vstr.32	s16, [r3]
 106:MultiFX.cpp   ****     delr.SetDelay(currentDelay);
 673              		.loc 18 106 5 is_stmt 1 view .LVU158
 674              	.LVL28:
 675              	.LBB444:
 676              	.LBI424:
  52:../../DaisyExamples/DaisySP//Source/Utility/delayline.h ****     {
 677              		.loc 17 52 17 view .LVU159
  52:../../DaisyExamples/DaisySP//Source/Utility/delayline.h ****     {
 678              		.loc 17 52 17 is_stmt 0 view .LVU160
 679              	.LBE444:
 107:MultiFX.cpp   **** 
 680              		.loc 18 107 5 is_stmt 1 view .LVU161
 681              	.LBB445:
 682              	.LBI435:
  52:../../DaisyExamples/DaisySP//Source/Utility/delayline.h ****     {
 683              		.loc 17 52 17 view .LVU162
ARM GAS  C:\Users\Estudi\AppData\Local\Temp\ccjMGKtz.s 			page 29


  52:../../DaisyExamples/DaisySP//Source/Utility/delayline.h ****     {
 684              		.loc 17 52 17 is_stmt 0 view .LVU163
 685              	.LBE445:
 686              		.loc 18 110 5 is_stmt 1 view .LVU164
 687              		.loc 18 110 17 is_stmt 0 view .LVU165
 688 0174 FFF7FEFF 		bl	_ZN5daisy8DaisyPod8StartAdcEv
 689              	.LVL29:
 111:MultiFX.cpp   ****     pod.StartAudio(AudioCallback);
 690              		.loc 18 111 5 is_stmt 1 view .LVU166
 691              		.loc 18 111 19 is_stmt 0 view .LVU167
 692 0178 1A49     		ldr	r1, .L11+92
 693 017a A4F17400 		sub	r0, r4, #116
 694 017e FFF7FEFF 		bl	_ZN5daisy8DaisyPod10StartAudioEPFvPKfPfjE
 695              	.LVL30:
 696              	.L9:
 112:MultiFX.cpp   **** 
 113:MultiFX.cpp   ****     while(1) {}
 697              		.loc 18 113 5 is_stmt 1 discriminator 1 view .LVU168
 698              		.loc 18 113 5 discriminator 1 view .LVU169
 699              		.loc 18 113 5 discriminator 1 view .LVU170
 700              		.loc 18 113 5 discriminator 1 view .LVU171
 701 0182 FEE7     		b	.L9
 702              	.L12:
 703 0184 AFF30080 		.align	3
 704              	.L11:
 705 0188 9A999999 		.word	-1717986918
 706 018c 9999A93F 		.word	1068079513
 707 0190 00000000 		.word	_ZL3pod
 708 0194 00000000 		.word	_ZL3rev
 709 0198 00000000 		.word	.LANCHOR0
 710 019c 00000000 		.word	.LANCHOR1
 711 01a0 00530700 		.word	480000
 712 01a4 00000000 		.word	.LANCHOR2
 713 01a8 3333333F 		.word	1060320051
 714 01ac 0000F042 		.word	1123024896
 715 01b0 64000000 		.word	_ZL3pod+100
 716 01b4 0060EA47 		.word	1206542336
 717 01b8 00000000 		.word	.LANCHOR3
 718 01bc 00409C46 		.word	1184645120
 719 01c0 0000FA43 		.word	1140457472
 720 01c4 00000000 		.word	.LANCHOR4
 721 01c8 00004842 		.word	1112014848
 722 01cc 00000000 		.word	.LANCHOR5
 723 01d0 BFD40100 		.word	119999
 724 01d4 9A99593F 		.word	1062836634
 725 01d8 00A08C46 		.word	1183621120
 726 01dc 00000000 		.word	.LANCHOR7
 727 01e0 00000000 		.word	.LANCHOR6
 728 01e4 00000000 		.word	_Z13AudioCallbackPKfPfj
 729 01e8 18530700 		.word	_ZL4dell+12
 730 01ec 0C000000 		.word	_ZL4delr+12
 731              		.cfi_endproc
 732              	.LFE4796:
 734              		.section	.text._Z11UpdateKnobsRfS_,"ax",%progbits
 735              		.align	1
 736              		.p2align 2,,3
 737              		.global	_Z11UpdateKnobsRfS_
ARM GAS  C:\Users\Estudi\AppData\Local\Temp\ccjMGKtz.s 			page 30


 738              		.syntax unified
 739              		.thumb
 740              		.thumb_func
 741              		.fpu fpv5-d16
 743              	_Z11UpdateKnobsRfS_:
 744              	.LVL31:
 745              	.LFB4797:
 114:MultiFX.cpp   **** }
 115:MultiFX.cpp   **** 
 116:MultiFX.cpp   **** void UpdateKnobs(float &k1, float &k2)
 117:MultiFX.cpp   **** {
 746              		.loc 18 117 1 view -0
 747              		.cfi_startproc
 748              		@ args = 0, pretend = 0, frame = 0
 749              		@ frame_needed = 0, uses_anonymous_args = 0
 118:MultiFX.cpp   ****     k1 = pod.knob1.Process();
 750              		.loc 18 118 5 view .LVU173
 117:MultiFX.cpp   ****     k1 = pod.knob1.Process();
 751              		.loc 18 117 1 is_stmt 0 view .LVU174
 752 0000 38B5     		push	{r3, r4, r5, lr}
 753              		.cfi_def_cfa_offset 16
 754              		.cfi_offset 3, -16
 755              		.cfi_offset 4, -12
 756              		.cfi_offset 5, -8
 757              		.cfi_offset 14, -4
 117:MultiFX.cpp   ****     k1 = pod.knob1.Process();
 758              		.loc 18 117 1 view .LVU175
 759 0002 0546     		mov	r5, r0
 760              		.loc 18 118 27 view .LVU176
 761 0004 1E48     		ldr	r0, .L19
 762              	.LVL32:
 117:MultiFX.cpp   ****     k1 = pod.knob1.Process();
 763              		.loc 18 117 1 view .LVU177
 764 0006 0C46     		mov	r4, r1
 765              		.loc 18 118 27 view .LVU178
 766 0008 FFF7FEFF 		bl	_ZN5daisy13AnalogControl7ProcessEv
 767              	.LVL33:
 119:MultiFX.cpp   ****     k2 = pod.knob2.Process();
 768              		.loc 18 119 27 view .LVU179
 769 000c 1D48     		ldr	r0, .L19+4
 118:MultiFX.cpp   ****     k1 = pod.knob1.Process();
 770              		.loc 18 118 8 view .LVU180
 771 000e 85ED000A 		vstr.32	s0, [r5]
 772              		.loc 18 119 5 is_stmt 1 view .LVU181
 773              		.loc 18 119 27 is_stmt 0 view .LVU182
 774 0012 FFF7FEFF 		bl	_ZN5daisy13AnalogControl7ProcessEv
 775              	.LVL34:
 120:MultiFX.cpp   **** 
 121:MultiFX.cpp   ****     switch(mode)
 776              		.loc 18 121 5 view .LVU183
 777 0016 1C4B     		ldr	r3, .L19+8
 119:MultiFX.cpp   ****     k2 = pod.knob2.Process();
 778              		.loc 18 119 8 view .LVU184
 779 0018 84ED000A 		vstr.32	s0, [r4]
 780              		.loc 18 121 5 is_stmt 1 view .LVU185
 781 001c 1B68     		ldr	r3, [r3]
 782 001e 012B     		cmp	r3, #1
ARM GAS  C:\Users\Estudi\AppData\Local\Temp\ccjMGKtz.s 			page 31


 783 0020 23D0     		beq	.L14
 784 0022 022B     		cmp	r3, #2
 785 0024 0DD0     		beq	.L15
 786 0026 03B1     		cbz	r3, .L18
 122:MultiFX.cpp   ****     {
 123:MultiFX.cpp   ****         case REV:
 124:MultiFX.cpp   ****             rev.SetFeedback(k1);
 125:MultiFX.cpp   ****             rev.SetLpFreq(k2 * 18000.f);
 126:MultiFX.cpp   ****             break;
 127:MultiFX.cpp   ****         case DEL:
 128:MultiFX.cpp   ****             delayTarget = deltime.Process();
 129:MultiFX.cpp   ****             feedback    = k2;
 130:MultiFX.cpp   ****             break;
 131:MultiFX.cpp   ****         case CRU:
 132:MultiFX.cpp   ****             cutoff = cutoffParam.Process();
 133:MultiFX.cpp   ****             tone.SetFreq(cutoff);
 134:MultiFX.cpp   ****             crushmod = (int)crushrate.Process();
 135:MultiFX.cpp   ****     }
 136:MultiFX.cpp   **** }
 787              		.loc 18 136 1 is_stmt 0 view .LVU186
 788 0028 38BD     		pop	{r3, r4, r5, pc}
 789              	.LVL35:
 790              	.L18:
 123:MultiFX.cpp   ****             rev.SetFeedback(k1);
 791              		.loc 18 123 9 is_stmt 1 view .LVU187
 124:MultiFX.cpp   ****             rev.SetLpFreq(k2 * 18000.f);
 792              		.loc 18 124 13 view .LVU188
 793              	.LBB446:
 794              	.LBI446:
  54:../../DaisyExamples/DaisySP//Source/Effects/reverbsc.h ****     /** controls the internal dampening filter's cutoff frequency.
 795              		.loc 15 54 17 view .LVU189
 796              	.LBB447:
  54:../../DaisyExamples/DaisySP//Source/Effects/reverbsc.h ****     /** controls the internal dampening filter's cutoff frequency.
 797              		.loc 15 54 48 view .LVU190
  54:../../DaisyExamples/DaisySP//Source/Effects/reverbsc.h ****     /** controls the internal dampening filter's cutoff frequency.
 798              		.loc 15 54 60 is_stmt 0 view .LVU191
 799 002a 2A68     		ldr	r2, [r5]	@ float
  54:../../DaisyExamples/DaisySP//Source/Effects/reverbsc.h ****     /** controls the internal dampening filter's cutoff frequency.
 800              		.loc 15 54 58 view .LVU192
 801 002c 174B     		ldr	r3, .L19+12
 802              	.LBE447:
 803              	.LBE446:
 125:MultiFX.cpp   ****             break;
 804              		.loc 18 125 30 view .LVU193
 805 002e 9FED187A 		vldr.32	s14, .L19+16
 806              	.LBB449:
 807              	.LBB448:
  54:../../DaisyExamples/DaisySP//Source/Effects/reverbsc.h ****     /** controls the internal dampening filter's cutoff frequency.
 808              		.loc 15 54 58 view .LVU194
 809 0032 1A60     		str	r2, [r3]	@ float
 810              	.LVL36:
  54:../../DaisyExamples/DaisySP//Source/Effects/reverbsc.h ****     /** controls the internal dampening filter's cutoff frequency.
 811              		.loc 15 54 58 view .LVU195
 812              	.LBE448:
 813              	.LBE449:
 125:MultiFX.cpp   ****             break;
 814              		.loc 18 125 13 is_stmt 1 view .LVU196
ARM GAS  C:\Users\Estudi\AppData\Local\Temp\ccjMGKtz.s 			page 32


 815              	.LBB450:
 816              	.LBI450:
 817              		.loc 15 58 17 view .LVU197
 818              	.LBB451:
 819              		.loc 15 58 48 view .LVU198
 820              	.LBE451:
 821              	.LBE450:
 125:MultiFX.cpp   ****             break;
 822              		.loc 18 125 30 is_stmt 0 view .LVU199
 823 0034 D4ED007A 		vldr.32	s15, [r4]
 824 0038 67EE877A 		vmul.f32	s15, s15, s14
 825              	.LBB453:
 826              	.LBB452:
 827              		.loc 15 58 56 view .LVU200
 828 003c C3ED017A 		vstr.32	s15, [r3, #4]
 829              	.LVL37:
 830              		.loc 15 58 56 view .LVU201
 831              	.LBE452:
 832              	.LBE453:
 126:MultiFX.cpp   ****         case DEL:
 833              		.loc 18 126 13 is_stmt 1 view .LVU202
 834              		.loc 18 136 1 is_stmt 0 view .LVU203
 835 0040 38BD     		pop	{r3, r4, r5, pc}
 836              	.LVL38:
 837              	.L15:
 131:MultiFX.cpp   ****             cutoff = cutoffParam.Process();
 838              		.loc 18 131 9 is_stmt 1 view .LVU204
 132:MultiFX.cpp   ****             tone.SetFreq(cutoff);
 839              		.loc 18 132 13 view .LVU205
 132:MultiFX.cpp   ****             tone.SetFreq(cutoff);
 840              		.loc 18 132 41 is_stmt 0 view .LVU206
 841 0042 1448     		ldr	r0, .L19+20
 842 0044 FFF7FEFF 		bl	_ZN5daisy9Parameter7ProcessEv
 843              	.LVL39:
 132:MultiFX.cpp   ****             tone.SetFreq(cutoff);
 844              		.loc 18 132 20 view .LVU207
 845 0048 134B     		ldr	r3, .L19+24
 846              	.LBB454:
 847              	.LBB455:
  17:../../DaisyExamples/DaisySP//Source/Filters/tone.h ****     /** Initializes the Tone module.
  18:../../DaisyExamples/DaisySP//Source/Filters/tone.h ****         sample_rate - The sample rate of the audio engine being run. 
  19:../../DaisyExamples/DaisySP//Source/Filters/tone.h ****     */
  20:../../DaisyExamples/DaisySP//Source/Filters/tone.h ****     void Init(float sample_rate);
  21:../../DaisyExamples/DaisySP//Source/Filters/tone.h **** 
  22:../../DaisyExamples/DaisySP//Source/Filters/tone.h **** 
  23:../../DaisyExamples/DaisySP//Source/Filters/tone.h ****     /** Processes one sample through the filter and returns one sample.
  24:../../DaisyExamples/DaisySP//Source/Filters/tone.h ****         in - input signal 
  25:../../DaisyExamples/DaisySP//Source/Filters/tone.h ****     */
  26:../../DaisyExamples/DaisySP//Source/Filters/tone.h ****     float Process(float &in);
  27:../../DaisyExamples/DaisySP//Source/Filters/tone.h **** 
  28:../../DaisyExamples/DaisySP//Source/Filters/tone.h ****     /** Sets the cutoff frequency or half-way point of the filter.
  29:../../DaisyExamples/DaisySP//Source/Filters/tone.h **** 
  30:../../DaisyExamples/DaisySP//Source/Filters/tone.h ****         \param freq - frequency value in Hz. Range: Any positive value.
  31:../../DaisyExamples/DaisySP//Source/Filters/tone.h ****     */
  32:../../DaisyExamples/DaisySP//Source/Filters/tone.h ****     inline void SetFreq(float &freq)
  33:../../DaisyExamples/DaisySP//Source/Filters/tone.h ****     {
  34:../../DaisyExamples/DaisySP//Source/Filters/tone.h ****         freq_ = freq;
ARM GAS  C:\Users\Estudi\AppData\Local\Temp\ccjMGKtz.s 			page 33


 848              		.loc 16 34 15 view .LVU208
 849 004a 1448     		ldr	r0, .L19+28
 850              	.LBE455:
 851              	.LBE454:
 132:MultiFX.cpp   ****             tone.SetFreq(cutoff);
 852              		.loc 18 132 20 view .LVU209
 853 004c 83ED000A 		vstr.32	s0, [r3]
 133:MultiFX.cpp   ****             crushmod = (int)crushrate.Process();
 854              		.loc 18 133 13 is_stmt 1 view .LVU210
 855              	.LVL40:
 856              	.LBB457:
 857              	.LBI454:
  32:../../DaisyExamples/DaisySP//Source/Filters/tone.h ****     {
 858              		.loc 16 32 17 view .LVU211
 859              	.LBB456:
 860              		.loc 16 34 9 view .LVU212
 861              		.loc 16 34 15 is_stmt 0 view .LVU213
 862 0050 80ED030A 		vstr.32	s0, [r0, #12]
  35:../../DaisyExamples/DaisySP//Source/Filters/tone.h ****         CalculateCoefficients();
 863              		.loc 16 35 9 is_stmt 1 view .LVU214
 864              		.loc 16 35 30 is_stmt 0 view .LVU215
 865 0054 FFF7FEFF 		bl	_ZN7daisysp4Tone21CalculateCoefficientsEv
 866              	.LVL41:
 867              		.loc 16 35 30 view .LVU216
 868              	.LBE456:
 869              	.LBE457:
 134:MultiFX.cpp   ****     }
 870              		.loc 18 134 13 is_stmt 1 view .LVU217
 134:MultiFX.cpp   ****     }
 871              		.loc 18 134 46 is_stmt 0 view .LVU218
 872 0058 1148     		ldr	r0, .L19+32
 873 005a FFF7FEFF 		bl	_ZN5daisy9Parameter7ProcessEv
 874              	.LVL42:
 134:MultiFX.cpp   ****     }
 875              		.loc 18 134 24 view .LVU219
 876 005e BDEEC00A 		vcvt.s32.f32	s0, s0
 134:MultiFX.cpp   ****     }
 877              		.loc 18 134 22 view .LVU220
 878 0062 104B     		ldr	r3, .L19+36
 134:MultiFX.cpp   ****     }
 879              		.loc 18 134 24 view .LVU221
 880 0064 83ED000A 		vstr.32	s0, [r3]	@ int
 881              		.loc 18 136 1 view .LVU222
 882 0068 38BD     		pop	{r3, r4, r5, pc}
 883              	.LVL43:
 884              	.L14:
 127:MultiFX.cpp   ****             delayTarget = deltime.Process();
 885              		.loc 18 127 9 is_stmt 1 view .LVU223
 128:MultiFX.cpp   ****             feedback    = k2;
 886              		.loc 18 128 13 view .LVU224
 128:MultiFX.cpp   ****             feedback    = k2;
 887              		.loc 18 128 42 is_stmt 0 view .LVU225
 888 006a 0F48     		ldr	r0, .L19+40
 889 006c FFF7FEFF 		bl	_ZN5daisy9Parameter7ProcessEv
 890              	.LVL44:
 128:MultiFX.cpp   ****             feedback    = k2;
 891              		.loc 18 128 25 view .LVU226
ARM GAS  C:\Users\Estudi\AppData\Local\Temp\ccjMGKtz.s 			page 34


 892 0070 0E4A     		ldr	r2, .L19+44
 129:MultiFX.cpp   ****             break;
 893              		.loc 18 129 25 view .LVU227
 894 0072 0F4B     		ldr	r3, .L19+48
 128:MultiFX.cpp   ****             feedback    = k2;
 895              		.loc 18 128 25 view .LVU228
 896 0074 82ED000A 		vstr.32	s0, [r2]
 129:MultiFX.cpp   ****             break;
 897              		.loc 18 129 13 is_stmt 1 view .LVU229
 129:MultiFX.cpp   ****             break;
 898              		.loc 18 129 27 is_stmt 0 view .LVU230
 899 0078 2268     		ldr	r2, [r4]	@ float
 129:MultiFX.cpp   ****             break;
 900              		.loc 18 129 25 view .LVU231
 901 007a 1A60     		str	r2, [r3]	@ float
 130:MultiFX.cpp   ****         case CRU:
 902              		.loc 18 130 13 is_stmt 1 view .LVU232
 903              		.loc 18 136 1 is_stmt 0 view .LVU233
 904 007c 38BD     		pop	{r3, r4, r5, pc}
 905              	.LVL45:
 906              	.L20:
 907              		.loc 18 136 1 view .LVU234
 908 007e 00BF     		.align	2
 909              	.L19:
 910 0080 64000000 		.word	_ZL3pod+100
 911 0084 84000000 		.word	_ZL3pod+132
 912 0088 00000000 		.word	.LANCHOR8
 913 008c 00000000 		.word	_ZL3rev
 914 0090 00A08C46 		.word	1183621120
 915 0094 00000000 		.word	.LANCHOR4
 916 0098 00000000 		.word	.LANCHOR10
 917 009c 00000000 		.word	.LANCHOR2
 918 00a0 00000000 		.word	.LANCHOR5
 919 00a4 00000000 		.word	.LANCHOR11
 920 00a8 00000000 		.word	.LANCHOR3
 921 00ac 00000000 		.word	.LANCHOR6
 922 00b0 00000000 		.word	.LANCHOR9
 923              		.cfi_endproc
 924              	.LFE4797:
 926              		.section	.text._Z13UpdateEncoderv,"ax",%progbits
 927              		.align	1
 928              		.p2align 2,,3
 929              		.global	_Z13UpdateEncoderv
 930              		.syntax unified
 931              		.thumb
 932              		.thumb_func
 933              		.fpu fpv5-d16
 935              	_Z13UpdateEncoderv:
 936              	.LFB4798:
 137:MultiFX.cpp   **** 
 138:MultiFX.cpp   **** void UpdateEncoder()
 139:MultiFX.cpp   **** {
 937              		.loc 18 139 1 is_stmt 1 view -0
 938              		.cfi_startproc
 939              		@ args = 0, pretend = 0, frame = 0
 940              		@ frame_needed = 0, uses_anonymous_args = 0
 941              		@ link register save eliminated.
ARM GAS  C:\Users\Estudi\AppData\Local\Temp\ccjMGKtz.s 			page 35


 140:MultiFX.cpp   ****     mode = mode + pod.encoder.Increment();
 942              		.loc 18 140 5 view .LVU236
 943              	.LVL46:
 944              	.LBB460:
 945              	.LBI460:
  22:../../DaisyExamples/libDaisy//src/hid/encoder.h **** 
  23:../../DaisyExamples/libDaisy//src/hid/encoder.h ****     /** Initializes the encoder with the specified hardware pins.
  24:../../DaisyExamples/libDaisy//src/hid/encoder.h ****      * Update rate is to be deprecated in a future release
  25:../../DaisyExamples/libDaisy//src/hid/encoder.h ****      */
  26:../../DaisyExamples/libDaisy//src/hid/encoder.h ****     void Init(dsy_gpio_pin a,
  27:../../DaisyExamples/libDaisy//src/hid/encoder.h ****               dsy_gpio_pin b,
  28:../../DaisyExamples/libDaisy//src/hid/encoder.h ****               dsy_gpio_pin click,
  29:../../DaisyExamples/libDaisy//src/hid/encoder.h ****               float        update_rate = 0.f);
  30:../../DaisyExamples/libDaisy//src/hid/encoder.h ****     /** Called at update_rate to debounce and handle timing for the switch.
  31:../../DaisyExamples/libDaisy//src/hid/encoder.h ****      * In order for events not to be missed, its important that the Edge/Pressed checks be made at 
  32:../../DaisyExamples/libDaisy//src/hid/encoder.h ****      */
  33:../../DaisyExamples/libDaisy//src/hid/encoder.h ****     void Debounce();
  34:../../DaisyExamples/libDaisy//src/hid/encoder.h **** 
  35:../../DaisyExamples/libDaisy//src/hid/encoder.h ****     /** Returns +1 if the encoder was turned clockwise, -1 if it was turned counter-clockwise, or 0
  36:../../DaisyExamples/libDaisy//src/hid/encoder.h ****     inline int32_t Increment() const { return updated_ ? inc_ : 0; }
 946              		.loc 8 36 20 view .LVU237
 947              	.LBB461:
 948              		.loc 8 36 40 view .LVU238
 949              		.loc 8 36 47 is_stmt 0 view .LVU239
 950 0000 0E4A     		ldr	r2, .L25
 951              		.loc 8 36 56 view .LVU240
 952 0002 92F84030 		ldrb	r3, [r2, #64]	@ zero_extendqisi2
 953              	.LBE461:
 954              	.LBE460:
 139:MultiFX.cpp   ****     mode = mode + pod.encoder.Increment();
 955              		.loc 18 139 1 view .LVU241
 956 0006 10B4     		push	{r4}
 957              		.cfi_def_cfa_offset 4
 958              		.cfi_offset 4, -4
 959              	.LBB463:
 960              	.LBB462:
 961              		.loc 8 36 56 view .LVU242
 962 0008 03B1     		cbz	r3, .L22
 963 000a 136E     		ldr	r3, [r2, #96]
 964              	.L22:
 965              	.LVL47:
 966              		.loc 8 36 56 view .LVU243
 967              	.LBE462:
 968              	.LBE463:
 141:MultiFX.cpp   ****     mode = (mode % 3 + 3) % 3;
 969              		.loc 18 141 5 is_stmt 1 view .LVU244
 970              		.loc 18 141 10 is_stmt 0 view .LVU245
 971 000c 0C48     		ldr	r0, .L25+4
 972              		.loc 18 141 18 view .LVU246
 973 000e 0D4A     		ldr	r2, .L25+8
 140:MultiFX.cpp   ****     mode = (mode % 3 + 3) % 3;
 974              		.loc 18 140 17 view .LVU247
 975 0010 0468     		ldr	r4, [r0]
 976              		.loc 18 141 27 view .LVU248
 977 0012 0D49     		ldr	r1, .L25+12
 140:MultiFX.cpp   ****     mode = (mode % 3 + 3) % 3;
 978              		.loc 18 140 17 view .LVU249
ARM GAS  C:\Users\Estudi\AppData\Local\Temp\ccjMGKtz.s 			page 36


 979 0014 2344     		add	r3, r3, r4
 980              		.loc 18 141 18 view .LVU250
 981 0016 82FB0342 		smull	r4, r2, r2, r3
 142:MultiFX.cpp   **** }
 982              		.loc 18 142 1 view .LVU251
 983 001a 5DF8044B 		ldr	r4, [sp], #4
 984              		.cfi_restore 4
 985              		.cfi_def_cfa_offset 0
 141:MultiFX.cpp   ****     mode = (mode % 3 + 3) % 3;
 986              		.loc 18 141 18 view .LVU252
 987 001e A2EBE372 		sub	r2, r2, r3, asr #31
 988 0022 02EB4202 		add	r2, r2, r2, lsl #1
 989 0026 9B1A     		subs	r3, r3, r2
 141:MultiFX.cpp   ****     mode = (mode % 3 + 3) % 3;
 990              		.loc 18 141 22 view .LVU253
 991 0028 0333     		adds	r3, r3, #3
 141:MultiFX.cpp   ****     mode = (mode % 3 + 3) % 3;
 992              		.loc 18 141 27 view .LVU254
 993 002a A1FB0312 		umull	r1, r2, r1, r3
 994 002e 22F00101 		bic	r1, r2, #1
 995 0032 01EB5202 		add	r2, r1, r2, lsr #1
 996 0036 9B1A     		subs	r3, r3, r2
 141:MultiFX.cpp   ****     mode = (mode % 3 + 3) % 3;
 997              		.loc 18 141 10 view .LVU255
 998 0038 0360     		str	r3, [r0]
 999              		.loc 18 142 1 view .LVU256
 1000 003a 7047     		bx	lr
 1001              	.L26:
 1002              		.align	2
 1003              	.L25:
 1004 003c 00000000 		.word	_ZL3pod
 1005 0040 00000000 		.word	.LANCHOR8
 1006 0044 56555555 		.word	1431655766
 1007 0048 ABAAAAAA 		.word	-1431655765
 1008              		.cfi_endproc
 1009              	.LFE4798:
 1011              		.section	.text._Z10UpdateLedsff,"ax",%progbits
 1012              		.align	1
 1013              		.p2align 2,,3
 1014              		.global	_Z10UpdateLedsff
 1015              		.syntax unified
 1016              		.thumb
 1017              		.thumb_func
 1018              		.fpu fpv5-d16
 1020              	_Z10UpdateLedsff:
 1021              	.LVL48:
 1022              	.LFB4799:
 143:MultiFX.cpp   **** 
 144:MultiFX.cpp   **** void UpdateLeds(float k1, float k2)
 145:MultiFX.cpp   **** {
 1023              		.loc 18 145 1 is_stmt 1 view -0
 1024              		.cfi_startproc
 1025              		@ args = 0, pretend = 0, frame = 0
 1026              		@ frame_needed = 0, uses_anonymous_args = 0
 146:MultiFX.cpp   ****     pod.led1.Set(
 1027              		.loc 18 146 5 view .LVU258
 145:MultiFX.cpp   ****     pod.led1.Set(
ARM GAS  C:\Users\Estudi\AppData\Local\Temp\ccjMGKtz.s 			page 37


 1028              		.loc 18 145 1 is_stmt 0 view .LVU259
 1029 0000 10B5     		push	{r4, lr}
 1030              		.cfi_def_cfa_offset 8
 1031              		.cfi_offset 4, -8
 1032              		.cfi_offset 14, -4
 147:MultiFX.cpp   ****         k1 * (mode == 2), k1 * (mode == 1), k1 * (mode == 0 || mode == 2));
 1033              		.loc 18 147 20 view .LVU260
 1034 0002 254C     		ldr	r4, .L37
 145:MultiFX.cpp   ****     pod.led1.Set(
 1035              		.loc 18 145 1 view .LVU261
 1036 0004 F0EE407A 		vmov.f32	s15, s0
 1037              		.loc 18 147 20 view .LVU262
 1038 0008 2368     		ldr	r3, [r4]
 146:MultiFX.cpp   ****     pod.led1.Set(
 1039              		.loc 18 146 17 view .LVU263
 1040 000a 022B     		cmp	r3, #2
 145:MultiFX.cpp   ****     pod.led1.Set(
 1041              		.loc 18 145 1 view .LVU264
 1042 000c 2DED028B 		vpush.64	{d8}
 1043              		.cfi_def_cfa_offset 16
 1044              		.cfi_offset 80, -16
 1045              		.cfi_offset 81, -12
 145:MultiFX.cpp   ****     pod.led1.Set(
 1046              		.loc 18 145 1 view .LVU265
 1047 0010 B0EE608A 		vmov.f32	s16, s1
 146:MultiFX.cpp   ****     pod.led1.Set(
 1048              		.loc 18 146 17 view .LVU266
 1049 0014 33D0     		beq	.L35
 146:MultiFX.cpp   ****     pod.led1.Set(
 1050              		.loc 18 146 17 discriminator 4 view .LVU267
 1051 0016 9FED210A 		vldr.32	s0, .L37+4
 1052              	.LVL49:
 146:MultiFX.cpp   ****     pod.led1.Set(
 1053              		.loc 18 146 17 discriminator 4 view .LVU268
 1054 001a 012B     		cmp	r3, #1
 1055 001c 27EE800A 		vmul.f32	s0, s15, s0
 1056 0020 47FE800A 		vseleq.f32	s1, s15, s0
 1057              	.LVL50:
 1058              	.L29:
 1059              		.loc 18 147 61 discriminator 8 view .LVU269
 1060 0024 33F00203 		bics	r3, r3, #2
 146:MultiFX.cpp   ****     pod.led1.Set(
 1061              		.loc 18 146 17 discriminator 8 view .LVU270
 1062 0028 1D48     		ldr	r0, .L37+8
 1063              		.loc 18 147 61 discriminator 8 view .LVU271
 1064 002a 0CBF     		ite	eq
 1065 002c 0123     		moveq	r3, #1
 1066 002e 0023     		movne	r3, #0
 1067 0030 01EE103A 		vmov	s2, r3	@ int
 146:MultiFX.cpp   ****     pod.led1.Set(
 1068              		.loc 18 146 17 discriminator 8 view .LVU272
 1069 0034 B8EEC11A 		vcvt.f32.s32	s2, s2
 1070 0038 21EE271A 		vmul.f32	s2, s2, s15
 1071 003c FFF7FEFF 		bl	_ZN5daisy6RgbLed3SetEfff
 1072              	.LVL51:
 148:MultiFX.cpp   ****     pod.led2.Set(
 1073              		.loc 18 148 5 is_stmt 1 discriminator 8 view .LVU273
ARM GAS  C:\Users\Estudi\AppData\Local\Temp\ccjMGKtz.s 			page 38


 149:MultiFX.cpp   ****         k2 * (mode == 2), k2 * (mode == 1), k2 * (mode == 0 || mode == 2));
 1074              		.loc 18 149 20 is_stmt 0 discriminator 8 view .LVU274
 1075 0040 2368     		ldr	r3, [r4]
 148:MultiFX.cpp   ****     pod.led2.Set(
 1076              		.loc 18 148 17 discriminator 8 view .LVU275
 1077 0042 022B     		cmp	r3, #2
 1078 0044 20D0     		beq	.L36
 148:MultiFX.cpp   ****     pod.led2.Set(
 1079              		.loc 18 148 17 discriminator 4 view .LVU276
 1080 0046 9FED150A 		vldr.32	s0, .L37+4
 1081 004a 012B     		cmp	r3, #1
 1082 004c 28EE000A 		vmul.f32	s0, s16, s0
 1083 0050 48FE000A 		vseleq.f32	s1, s16, s0
 1084              	.L31:
 1085              		.loc 18 149 61 discriminator 8 view .LVU277
 1086 0054 33F00203 		bics	r3, r3, #2
 148:MultiFX.cpp   ****     pod.led2.Set(
 1087              		.loc 18 148 17 discriminator 8 view .LVU278
 1088 0058 1248     		ldr	r0, .L37+12
 1089              		.loc 18 149 61 discriminator 8 view .LVU279
 1090 005a 0CBF     		ite	eq
 1091 005c 0123     		moveq	r3, #1
 1092 005e 0023     		movne	r3, #0
 1093 0060 01EE103A 		vmov	s2, r3	@ int
 148:MultiFX.cpp   ****     pod.led2.Set(
 1094              		.loc 18 148 17 discriminator 8 view .LVU280
 1095 0064 B8EEC11A 		vcvt.f32.s32	s2, s2
 1096 0068 21EE081A 		vmul.f32	s2, s2, s16
 1097 006c FFF7FEFF 		bl	_ZN5daisy6RgbLed3SetEfff
 1098              	.LVL52:
 150:MultiFX.cpp   **** 
 151:MultiFX.cpp   ****     pod.UpdateLeds();
 1099              		.loc 18 151 5 is_stmt 1 discriminator 8 view .LVU281
 1100              		.loc 18 151 19 is_stmt 0 discriminator 8 view .LVU282
 1101 0070 0D48     		ldr	r0, .L37+16
 152:MultiFX.cpp   **** }
 1102              		.loc 18 152 1 discriminator 8 view .LVU283
 1103 0072 BDEC028B 		vldm	sp!, {d8}
 1104              		.cfi_remember_state
 1105              		.cfi_restore 80
 1106              		.cfi_restore 81
 1107              		.cfi_def_cfa_offset 8
 1108              	.LVL53:
 1109              		.loc 18 152 1 discriminator 8 view .LVU284
 1110 0076 BDE81040 		pop	{r4, lr}
 1111              		.cfi_restore 14
 1112              		.cfi_restore 4
 1113              		.cfi_def_cfa_offset 0
 151:MultiFX.cpp   **** }
 1114              		.loc 18 151 19 discriminator 8 view .LVU285
 1115 007a FFF7FEBF 		b	_ZN5daisy8DaisyPod10UpdateLedsEv
 1116              	.LVL54:
 1117              	.L35:
 1118              		.cfi_restore_state
 146:MultiFX.cpp   ****         k1 * (mode == 2), k1 * (mode == 1), k1 * (mode == 0 || mode == 2));
 1119              		.loc 18 146 17 view .LVU286
 1120 007e DFED070A 		vldr.32	s1, .L37+4
ARM GAS  C:\Users\Estudi\AppData\Local\Temp\ccjMGKtz.s 			page 39


 1121              	.LVL55:
 146:MultiFX.cpp   ****         k1 * (mode == 2), k1 * (mode == 1), k1 * (mode == 0 || mode == 2));
 1122              		.loc 18 146 17 view .LVU287
 1123 0082 60EE200A 		vmul.f32	s1, s0, s1
 1124 0086 CDE7     		b	.L29
 1125              	.LVL56:
 1126              	.L36:
 148:MultiFX.cpp   ****         k2 * (mode == 2), k2 * (mode == 1), k2 * (mode == 0 || mode == 2));
 1127              		.loc 18 148 17 view .LVU288
 1128 0088 DFED040A 		vldr.32	s1, .L37+4
 1129 008c B0EE480A 		vmov.f32	s0, s16
 1130 0090 68EE200A 		vmul.f32	s1, s16, s1
 1131 0094 DEE7     		b	.L31
 1132              	.L38:
 1133 0096 00BF     		.align	2
 1134              	.L37:
 1135 0098 00000000 		.word	.LANCHOR8
 1136 009c 00000000 		.word	0
 1137 00a0 D4000000 		.word	_ZL3pod+212
 1138 00a4 28010000 		.word	_ZL3pod+296
 1139 00a8 00000000 		.word	_ZL3pod
 1140              		.cfi_endproc
 1141              	.LFE4799:
 1143              		.section	.text._Z8Controlsv,"ax",%progbits
 1144              		.align	1
 1145              		.p2align 2,,3
 1146              		.global	_Z8Controlsv
 1147              		.syntax unified
 1148              		.thumb
 1149              		.thumb_func
 1150              		.fpu fpv5-d16
 1152              	_Z8Controlsv:
 1153              	.LFB4800:
 153:MultiFX.cpp   **** 
 154:MultiFX.cpp   **** void Controls()
 155:MultiFX.cpp   **** {
 1154              		.loc 18 155 1 is_stmt 1 view -0
 1155              		.cfi_startproc
 1156              		@ args = 0, pretend = 0, frame = 8
 1157              		@ frame_needed = 0, uses_anonymous_args = 0
 156:MultiFX.cpp   ****     float k1, k2;
 1158              		.loc 18 156 5 view .LVU290
 157:MultiFX.cpp   ****     delayTarget = feedback = drywet = 0;
 1159              		.loc 18 157 5 view .LVU291
 155:MultiFX.cpp   ****     float k1, k2;
 1160              		.loc 18 155 1 is_stmt 0 view .LVU292
 1161 0000 10B5     		push	{r4, lr}
 1162              		.cfi_def_cfa_offset 8
 1163              		.cfi_offset 4, -8
 1164              		.cfi_offset 14, -4
 1165              		.loc 18 157 37 view .LVU293
 1166 0002 0023     		movs	r3, #0
 158:MultiFX.cpp   **** 
 159:MultiFX.cpp   ****     pod.ProcessAnalogControls();
 1167              		.loc 18 159 30 view .LVU294
 1168 0004 194C     		ldr	r4, .L43
 157:MultiFX.cpp   **** 
ARM GAS  C:\Users\Estudi\AppData\Local\Temp\ccjMGKtz.s 			page 40


 1169              		.loc 18 157 37 view .LVU295
 1170 0006 1A48     		ldr	r0, .L43+4
 155:MultiFX.cpp   ****     float k1, k2;
 1171              		.loc 18 155 1 view .LVU296
 1172 0008 82B0     		sub	sp, sp, #8
 1173              		.cfi_def_cfa_offset 16
 157:MultiFX.cpp   **** 
 1174              		.loc 18 157 28 view .LVU297
 1175 000a 1A49     		ldr	r1, .L43+8
 157:MultiFX.cpp   **** 
 1176              		.loc 18 157 17 view .LVU298
 1177 000c 1A4A     		ldr	r2, .L43+12
 157:MultiFX.cpp   **** 
 1178              		.loc 18 157 37 view .LVU299
 1179 000e 0360     		str	r3, [r0]	@ float
 1180              		.loc 18 159 30 view .LVU300
 1181 0010 2046     		mov	r0, r4
 157:MultiFX.cpp   **** 
 1182              		.loc 18 157 28 view .LVU301
 1183 0012 0B60     		str	r3, [r1]	@ float
 157:MultiFX.cpp   **** 
 1184              		.loc 18 157 17 view .LVU302
 1185 0014 1360     		str	r3, [r2]	@ float
 1186              		.loc 18 159 5 is_stmt 1 view .LVU303
 1187              		.loc 18 159 30 is_stmt 0 view .LVU304
 1188 0016 FFF7FEFF 		bl	_ZN5daisy8DaisyPod21ProcessAnalogControlsEv
 1189              	.LVL57:
 160:MultiFX.cpp   ****     pod.ProcessDigitalControls();
 1190              		.loc 18 160 5 is_stmt 1 view .LVU305
 1191              		.loc 18 160 31 is_stmt 0 view .LVU306
 1192 001a 2046     		mov	r0, r4
 1193 001c FFF7FEFF 		bl	_ZN5daisy8DaisyPod22ProcessDigitalControlsEv
 1194              	.LVL58:
 161:MultiFX.cpp   **** 
 162:MultiFX.cpp   ****     UpdateKnobs(k1, k2);
 1195              		.loc 18 162 5 is_stmt 1 view .LVU307
 1196              		.loc 18 162 16 is_stmt 0 view .LVU308
 1197 0020 01A9     		add	r1, sp, #4
 1198 0022 6846     		mov	r0, sp
 1199 0024 FFF7FEFF 		bl	_Z11UpdateKnobsRfS_
 1200              	.LVL59:
 163:MultiFX.cpp   **** 
 164:MultiFX.cpp   ****     UpdateEncoder();
 1201              		.loc 18 164 5 is_stmt 1 view .LVU309
 1202              	.LBB468:
 1203              	.LBI468:
 138:MultiFX.cpp   **** {
 1204              		.loc 18 138 6 view .LVU310
 1205              	.LBB469:
 140:MultiFX.cpp   ****     mode = (mode % 3 + 3) % 3;
 1206              		.loc 18 140 5 view .LVU311
 1207              	.LBB470:
 1208              	.LBI470:
 1209              		.loc 8 36 20 view .LVU312
 1210              	.LBB471:
 1211              		.loc 8 36 40 view .LVU313
 1212              		.loc 8 36 56 is_stmt 0 view .LVU314
ARM GAS  C:\Users\Estudi\AppData\Local\Temp\ccjMGKtz.s 			page 41


 1213 0028 94F84030 		ldrb	r3, [r4, #64]	@ zero_extendqisi2
 1214 002c 03B1     		cbz	r3, .L40
 1215 002e 236E     		ldr	r3, [r4, #96]
 1216              	.L40:
 1217              	.LVL60:
 1218              		.loc 8 36 56 view .LVU315
 1219              	.LBE471:
 1220              	.LBE470:
 141:MultiFX.cpp   **** }
 1221              		.loc 18 141 5 is_stmt 1 view .LVU316
 141:MultiFX.cpp   **** }
 1222              		.loc 18 141 10 is_stmt 0 view .LVU317
 1223 0030 1248     		ldr	r0, .L43+16
 141:MultiFX.cpp   **** }
 1224              		.loc 18 141 18 view .LVU318
 1225 0032 134A     		ldr	r2, .L43+20
 140:MultiFX.cpp   ****     mode = (mode % 3 + 3) % 3;
 1226              		.loc 18 140 17 view .LVU319
 1227 0034 0468     		ldr	r4, [r0]
 141:MultiFX.cpp   **** }
 1228              		.loc 18 141 27 view .LVU320
 1229 0036 1349     		ldr	r1, .L43+24
 140:MultiFX.cpp   ****     mode = (mode % 3 + 3) % 3;
 1230              		.loc 18 140 17 view .LVU321
 1231 0038 2344     		add	r3, r3, r4
 1232              	.LBE469:
 1233              	.LBE468:
 165:MultiFX.cpp   **** 
 166:MultiFX.cpp   ****     UpdateLeds(k1, k2);
 1234              		.loc 18 166 15 view .LVU322
 1235 003a DDED010A 		vldr.32	s1, [sp, #4]
 1236 003e 9DED000A 		vldr.32	s0, [sp]
 1237              	.LBB473:
 1238              	.LBB472:
 141:MultiFX.cpp   **** }
 1239              		.loc 18 141 18 view .LVU323
 1240 0042 82FB0342 		smull	r4, r2, r2, r3
 1241 0046 A2EBE372 		sub	r2, r2, r3, asr #31
 1242 004a 02EB4202 		add	r2, r2, r2, lsl #1
 1243 004e 9B1A     		subs	r3, r3, r2
 141:MultiFX.cpp   **** }
 1244              		.loc 18 141 22 view .LVU324
 1245 0050 0333     		adds	r3, r3, #3
 141:MultiFX.cpp   **** }
 1246              		.loc 18 141 27 view .LVU325
 1247 0052 A1FB0312 		umull	r1, r2, r1, r3
 1248 0056 22F00101 		bic	r1, r2, #1
 1249 005a 01EB5202 		add	r2, r1, r2, lsr #1
 1250 005e 9B1A     		subs	r3, r3, r2
 141:MultiFX.cpp   **** }
 1251              		.loc 18 141 10 view .LVU326
 1252 0060 0360     		str	r3, [r0]
 1253              	.LBE472:
 1254              	.LBE473:
 1255              		.loc 18 166 5 is_stmt 1 view .LVU327
 1256              		.loc 18 166 15 is_stmt 0 view .LVU328
 1257 0062 FFF7FEFF 		bl	_Z10UpdateLedsff
ARM GAS  C:\Users\Estudi\AppData\Local\Temp\ccjMGKtz.s 			page 42


 1258              	.LVL61:
 167:MultiFX.cpp   **** }
 1259              		.loc 18 167 1 view .LVU329
 1260 0066 02B0     		add	sp, sp, #8
 1261              		.cfi_def_cfa_offset 8
 1262              		@ sp needed
 1263 0068 10BD     		pop	{r4, pc}
 1264              	.L44:
 1265 006a 00BF     		.align	2
 1266              	.L43:
 1267 006c 00000000 		.word	_ZL3pod
 1268 0070 00000000 		.word	.LANCHOR12
 1269 0074 00000000 		.word	.LANCHOR9
 1270 0078 00000000 		.word	.LANCHOR6
 1271 007c 00000000 		.word	.LANCHOR8
 1272 0080 56555555 		.word	1431655766
 1273 0084 ABAAAAAA 		.word	-1431655765
 1274              		.cfi_endproc
 1275              	.LFE4800:
 1277              		.section	.text._Z15GetReverbSampleRfS_ff,"ax",%progbits
 1278              		.align	1
 1279              		.p2align 2,,3
 1280              		.global	_Z15GetReverbSampleRfS_ff
 1281              		.syntax unified
 1282              		.thumb
 1283              		.thumb_func
 1284              		.fpu fpv5-d16
 1286              	_Z15GetReverbSampleRfS_ff:
 1287              	.LVL62:
 1288              	.LFB4801:
 168:MultiFX.cpp   **** 
 169:MultiFX.cpp   **** void GetReverbSample(float &outl, float &outr, float inl, float inr)
 170:MultiFX.cpp   **** {   
 1289              		.loc 18 170 1 is_stmt 1 view -0
 1290              		.cfi_startproc
 1291              		@ args = 0, pretend = 0, frame = 16
 1292              		@ frame_needed = 0, uses_anonymous_args = 0
 171:MultiFX.cpp   ****     //filter before the reverb
 172:MultiFX.cpp   ****     filtl.Process(inl);
 1293              		.loc 18 172 5 view .LVU331
 170:MultiFX.cpp   ****     //filter before the reverb
 1294              		.loc 18 170 1 is_stmt 0 view .LVU332
 1295 0000 70B5     		push	{r4, r5, r6, lr}
 1296              		.cfi_def_cfa_offset 16
 1297              		.cfi_offset 4, -16
 1298              		.cfi_offset 5, -12
 1299              		.cfi_offset 6, -8
 1300              		.cfi_offset 14, -4
 1301              		.loc 18 172 18 view .LVU333
 1302 0002 104E     		ldr	r6, .L47
 170:MultiFX.cpp   ****     //filter before the reverb
 1303              		.loc 18 170 1 view .LVU334
 1304 0004 0346     		mov	r3, r0
 173:MultiFX.cpp   ****     filtr.Process(inr);
 1305              		.loc 18 173 18 view .LVU335
 1306 0006 104D     		ldr	r5, .L47+4
 170:MultiFX.cpp   ****     //filter before the reverb
ARM GAS  C:\Users\Estudi\AppData\Local\Temp\ccjMGKtz.s 			page 43


 1307              		.loc 18 170 1 view .LVU336
 1308 0008 0C46     		mov	r4, r1
 172:MultiFX.cpp   ****     filtr.Process(inr);
 1309              		.loc 18 172 18 view .LVU337
 1310 000a 3046     		mov	r0, r6
 1311              	.LVL63:
 170:MultiFX.cpp   ****     //filter before the reverb
 1312              		.loc 18 170 1 view .LVU338
 1313 000c 2DED028B 		vpush.64	{d8}
 1314              		.cfi_def_cfa_offset 24
 1315              		.cfi_offset 80, -24
 1316              		.cfi_offset 81, -20
 1317 0010 B0EE608A 		vmov.f32	s16, s1
 1318 0014 86B0     		sub	sp, sp, #24
 1319              		.cfi_def_cfa_offset 48
 170:MultiFX.cpp   ****     //filter before the reverb
 1320              		.loc 18 170 1 view .LVU339
 1321 0016 0393     		str	r3, [sp, #12]
 172:MultiFX.cpp   ****     filtr.Process(inr);
 1322              		.loc 18 172 18 view .LVU340
 1323 0018 FFF7FEFF 		bl	_ZN7daisysp3Svf7ProcessEf
 1324              	.LVL64:
 1325              		.loc 18 173 5 is_stmt 1 view .LVU341
 1326              		.loc 18 173 18 is_stmt 0 view .LVU342
 1327 001c B0EE480A 		vmov.f32	s0, s16
 1328 0020 2846     		mov	r0, r5
 1329 0022 FFF7FEFF 		bl	_ZN7daisysp3Svf7ProcessEf
 1330              	.LVL65:
 174:MultiFX.cpp   ****     rev.Process(filtl.High(), filtr.High(), &outl, &outr);
 1331              		.loc 18 174 5 is_stmt 1 view .LVU343
 1332              	.LBB478:
 1333              	.LBI478:
  23:../../DaisyExamples/DaisySP//Source/Filters/svf.h ****     /** Initializes the filter
  24:../../DaisyExamples/DaisySP//Source/Filters/svf.h ****         float sample_rate - sample rate of the audio engine being run, and the frequency that the P
  25:../../DaisyExamples/DaisySP//Source/Filters/svf.h ****     */
  26:../../DaisyExamples/DaisySP//Source/Filters/svf.h ****     void Init(float sample_rate);
  27:../../DaisyExamples/DaisySP//Source/Filters/svf.h **** 
  28:../../DaisyExamples/DaisySP//Source/Filters/svf.h **** 
  29:../../DaisyExamples/DaisySP//Source/Filters/svf.h ****     /** 
  30:../../DaisyExamples/DaisySP//Source/Filters/svf.h ****         Process the input signal, updating all of the outputs.
  31:../../DaisyExamples/DaisySP//Source/Filters/svf.h ****     */
  32:../../DaisyExamples/DaisySP//Source/Filters/svf.h ****     void Process(float in);
  33:../../DaisyExamples/DaisySP//Source/Filters/svf.h **** 
  34:../../DaisyExamples/DaisySP//Source/Filters/svf.h **** 
  35:../../DaisyExamples/DaisySP//Source/Filters/svf.h ****     /** sets the frequency of the cutoff frequency. 
  36:../../DaisyExamples/DaisySP//Source/Filters/svf.h ****         f must be between 0.0 and sample_rate / 3
  37:../../DaisyExamples/DaisySP//Source/Filters/svf.h ****     */
  38:../../DaisyExamples/DaisySP//Source/Filters/svf.h ****     void SetFreq(float f);
  39:../../DaisyExamples/DaisySP//Source/Filters/svf.h **** 
  40:../../DaisyExamples/DaisySP//Source/Filters/svf.h ****     /** sets the resonance of the filter.
  41:../../DaisyExamples/DaisySP//Source/Filters/svf.h ****         Must be between 0.0 and 1.0 to ensure stability.
  42:../../DaisyExamples/DaisySP//Source/Filters/svf.h ****     */
  43:../../DaisyExamples/DaisySP//Source/Filters/svf.h ****     void SetRes(float r);
  44:../../DaisyExamples/DaisySP//Source/Filters/svf.h **** 
  45:../../DaisyExamples/DaisySP//Source/Filters/svf.h ****     /** sets the drive of the filter 
  46:../../DaisyExamples/DaisySP//Source/Filters/svf.h ****         affects the response of the resonance of the filter
  47:../../DaisyExamples/DaisySP//Source/Filters/svf.h ****     */
ARM GAS  C:\Users\Estudi\AppData\Local\Temp\ccjMGKtz.s 			page 44


  48:../../DaisyExamples/DaisySP//Source/Filters/svf.h ****     void SetDrive(float d);
  49:../../DaisyExamples/DaisySP//Source/Filters/svf.h ****     /** lowpass output
  50:../../DaisyExamples/DaisySP//Source/Filters/svf.h ****         \return low pass output of the filter
  51:../../DaisyExamples/DaisySP//Source/Filters/svf.h ****     */
  52:../../DaisyExamples/DaisySP//Source/Filters/svf.h ****     inline float Low() { return out_low_; }
  53:../../DaisyExamples/DaisySP//Source/Filters/svf.h ****     /** highpass output
  54:../../DaisyExamples/DaisySP//Source/Filters/svf.h ****         \return high pass output of the filter
  55:../../DaisyExamples/DaisySP//Source/Filters/svf.h ****     */
  56:../../DaisyExamples/DaisySP//Source/Filters/svf.h ****     inline float High() { return out_high_; }
 1334              		.loc 14 56 18 view .LVU344
 1335              	.LBB479:
 1336              		.loc 14 56 27 view .LVU345
 1337              		.loc 14 56 27 is_stmt 0 view .LVU346
 1338              	.LBE479:
 1339              	.LBE478:
 1340              		.loc 18 174 27 view .LVU347
 1341 0026 716B     		ldr	r1, [r6, #52]	@ float
 1342              		.loc 18 174 41 view .LVU348
 1343 0028 6D6B     		ldr	r5, [r5, #52]	@ float
 1344              		.loc 18 174 16 view .LVU349
 1345 002a 05AA     		add	r2, sp, #20
 1346              		.loc 18 174 27 view .LVU350
 1347 002c 0491     		str	r1, [sp, #16]	@ float
 1348              	.LVL66:
 1349              	.LBB480:
 1350              	.LBI480:
 1351              		.loc 14 56 18 is_stmt 1 view .LVU351
 1352              	.LBB481:
 1353              		.loc 14 56 27 view .LVU352
 1354              		.loc 14 56 27 is_stmt 0 view .LVU353
 1355              	.LBE481:
 1356              	.LBE480:
 1357              		.loc 18 174 16 view .LVU354
 1358 002e 04A9     		add	r1, sp, #16
 1359 0030 039B     		ldr	r3, [sp, #12]
 1360 0032 0094     		str	r4, [sp]
 1361 0034 0548     		ldr	r0, .L47+8
 1362              		.loc 18 174 41 view .LVU355
 1363 0036 0595     		str	r5, [sp, #20]	@ float
 1364              		.loc 18 174 16 view .LVU356
 1365 0038 FFF7FEFF 		bl	_ZN7daisysp8ReverbSc7ProcessERKfS2_PfS3_
 1366              	.LVL67:
 175:MultiFX.cpp   ****     // outl = drywet * outl + (1 - drywet) * inl;
 176:MultiFX.cpp   ****     // outr = drywet * outr + (1 - drywet) * inr;
 177:MultiFX.cpp   **** }
 1367              		.loc 18 177 1 view .LVU357
 1368 003c 06B0     		add	sp, sp, #24
 1369              		.cfi_def_cfa_offset 24
 1370              		@ sp needed
 1371 003e BDEC028B 		vldm	sp!, {d8}
 1372              		.cfi_restore 80
 1373              		.cfi_restore 81
 1374              		.cfi_def_cfa_offset 16
 1375              	.LVL68:
 1376              		.loc 18 177 1 view .LVU358
 1377 0042 70BD     		pop	{r4, r5, r6, pc}
 1378              	.LVL69:
ARM GAS  C:\Users\Estudi\AppData\Local\Temp\ccjMGKtz.s 			page 45


 1379              	.L48:
 1380              		.loc 18 177 1 view .LVU359
 1381              		.align	2
 1382              	.L47:
 1383 0044 00000000 		.word	.LANCHOR0
 1384 0048 00000000 		.word	.LANCHOR1
 1385 004c 00000000 		.word	_ZL3rev
 1386              		.cfi_endproc
 1387              	.LFE4801:
 1389              		.section	.text._Z14GetDelaySampleRfS_ff,"ax",%progbits
 1390              		.align	1
 1391              		.p2align 2,,3
 1392              		.global	_Z14GetDelaySampleRfS_ff
 1393              		.syntax unified
 1394              		.thumb
 1395              		.thumb_func
 1396              		.fpu fpv5-d16
 1398              	_Z14GetDelaySampleRfS_ff:
 1399              	.LVL70:
 1400              	.LFB4802:
 178:MultiFX.cpp   **** 
 179:MultiFX.cpp   **** void GetDelaySample(float &outl, float &outr, float inl, float inr)
 180:MultiFX.cpp   **** {
 1401              		.loc 18 180 1 is_stmt 1 view -0
 1402              		.cfi_startproc
 1403              		@ args = 0, pretend = 0, frame = 0
 1404              		@ frame_needed = 0, uses_anonymous_args = 0
 181:MultiFX.cpp   ****     fonepole(currentDelay, delayTarget, .00007f);
 1405              		.loc 18 181 5 view .LVU361
 1406              	.LBB496:
 1407              	.LBI496:
 1408              		.file 19 "../../DaisyExamples/DaisySP//Source/Utility/dsp.h"
   1:../../DaisyExamples/DaisySP//Source/Utility/dsp.h **** /** Helpful defines, functions, and other utilities for use in/with daisysp modules.
   2:../../DaisyExamples/DaisySP//Source/Utility/dsp.h **** */
   3:../../DaisyExamples/DaisySP//Source/Utility/dsp.h **** #pragma once
   4:../../DaisyExamples/DaisySP//Source/Utility/dsp.h **** #ifndef DSY_CORE_DSP
   5:../../DaisyExamples/DaisySP//Source/Utility/dsp.h **** #define DSY_CORE_DSP
   6:../../DaisyExamples/DaisySP//Source/Utility/dsp.h **** #include <cassert>
   7:../../DaisyExamples/DaisySP//Source/Utility/dsp.h **** #include <cstdint>
   8:../../DaisyExamples/DaisySP//Source/Utility/dsp.h **** #include <random>
   9:../../DaisyExamples/DaisySP//Source/Utility/dsp.h **** #include <cmath>
  10:../../DaisyExamples/DaisySP//Source/Utility/dsp.h **** 
  11:../../DaisyExamples/DaisySP//Source/Utility/dsp.h **** /** PIs
  12:../../DaisyExamples/DaisySP//Source/Utility/dsp.h **** */
  13:../../DaisyExamples/DaisySP//Source/Utility/dsp.h **** #define PI_F 3.1415927410125732421875f
  14:../../DaisyExamples/DaisySP//Source/Utility/dsp.h **** #define TWOPI_F (2.0f * PI_F)
  15:../../DaisyExamples/DaisySP//Source/Utility/dsp.h **** #define HALFPI_F (PI_F * 0.5f)
  16:../../DaisyExamples/DaisySP//Source/Utility/dsp.h **** #define DSY_MIN(in, mn) (in < mn ? in : mn)
  17:../../DaisyExamples/DaisySP//Source/Utility/dsp.h **** #define DSY_MAX(in, mx) (in > mx ? in : mx)
  18:../../DaisyExamples/DaisySP//Source/Utility/dsp.h **** #define DSY_CLAMP(in, mn, mx) (DSY_MIN(DSY_MAX(in, mn), mx))
  19:../../DaisyExamples/DaisySP//Source/Utility/dsp.h **** #define DSY_COUNTOF(_arr) (sizeof(_arr) / sizeof(_arr[0]))
  20:../../DaisyExamples/DaisySP//Source/Utility/dsp.h **** 
  21:../../DaisyExamples/DaisySP//Source/Utility/dsp.h **** namespace daisysp
  22:../../DaisyExamples/DaisySP//Source/Utility/dsp.h **** {
  23:../../DaisyExamples/DaisySP//Source/Utility/dsp.h **** //Avoids division for random floats. e.g. rand() * kRandFrac
  24:../../DaisyExamples/DaisySP//Source/Utility/dsp.h **** static constexpr float kRandFrac = 1.f / (float)RAND_MAX;
  25:../../DaisyExamples/DaisySP//Source/Utility/dsp.h **** 
ARM GAS  C:\Users\Estudi\AppData\Local\Temp\ccjMGKtz.s 			page 46


  26:../../DaisyExamples/DaisySP//Source/Utility/dsp.h **** //Convert from semitones to other units. e.g. 2 ^ (kOneTwelfth * x)
  27:../../DaisyExamples/DaisySP//Source/Utility/dsp.h **** static constexpr float kOneTwelfth = 1.f / 12.f;
  28:../../DaisyExamples/DaisySP//Source/Utility/dsp.h **** 
  29:../../DaisyExamples/DaisySP//Source/Utility/dsp.h **** /** efficient floating point min/max
  30:../../DaisyExamples/DaisySP//Source/Utility/dsp.h **** c/o stephen mccaul
  31:../../DaisyExamples/DaisySP//Source/Utility/dsp.h **** */
  32:../../DaisyExamples/DaisySP//Source/Utility/dsp.h **** inline float fmax(float a, float b)
  33:../../DaisyExamples/DaisySP//Source/Utility/dsp.h **** {
  34:../../DaisyExamples/DaisySP//Source/Utility/dsp.h ****     float r;
  35:../../DaisyExamples/DaisySP//Source/Utility/dsp.h **** #ifdef __arm__
  36:../../DaisyExamples/DaisySP//Source/Utility/dsp.h ****     asm("vmaxnm.f32 %[d], %[n], %[m]" : [d] "=t"(r) : [n] "t"(a), [m] "t"(b) :);
  37:../../DaisyExamples/DaisySP//Source/Utility/dsp.h **** #else
  38:../../DaisyExamples/DaisySP//Source/Utility/dsp.h ****     r = (a > b) ? a : b;
  39:../../DaisyExamples/DaisySP//Source/Utility/dsp.h **** #endif // __arm__
  40:../../DaisyExamples/DaisySP//Source/Utility/dsp.h ****     return r;
  41:../../DaisyExamples/DaisySP//Source/Utility/dsp.h **** }
  42:../../DaisyExamples/DaisySP//Source/Utility/dsp.h **** 
  43:../../DaisyExamples/DaisySP//Source/Utility/dsp.h **** inline float fmin(float a, float b)
  44:../../DaisyExamples/DaisySP//Source/Utility/dsp.h **** {
  45:../../DaisyExamples/DaisySP//Source/Utility/dsp.h ****     float r;
  46:../../DaisyExamples/DaisySP//Source/Utility/dsp.h **** #ifdef __arm__
  47:../../DaisyExamples/DaisySP//Source/Utility/dsp.h ****     asm("vminnm.f32 %[d], %[n], %[m]" : [d] "=t"(r) : [n] "t"(a), [m] "t"(b) :);
  48:../../DaisyExamples/DaisySP//Source/Utility/dsp.h **** #else
  49:../../DaisyExamples/DaisySP//Source/Utility/dsp.h ****     r = (a < b) ? a : b;
  50:../../DaisyExamples/DaisySP//Source/Utility/dsp.h **** #endif // __arm__
  51:../../DaisyExamples/DaisySP//Source/Utility/dsp.h ****     return r;
  52:../../DaisyExamples/DaisySP//Source/Utility/dsp.h **** }
  53:../../DaisyExamples/DaisySP//Source/Utility/dsp.h **** 
  54:../../DaisyExamples/DaisySP//Source/Utility/dsp.h **** /** quick fp clamp
  55:../../DaisyExamples/DaisySP//Source/Utility/dsp.h **** */
  56:../../DaisyExamples/DaisySP//Source/Utility/dsp.h **** inline float fclamp(float in, float min, float max)
  57:../../DaisyExamples/DaisySP//Source/Utility/dsp.h **** {
  58:../../DaisyExamples/DaisySP//Source/Utility/dsp.h ****     return fmin(fmax(in, min), max);
  59:../../DaisyExamples/DaisySP//Source/Utility/dsp.h **** }
  60:../../DaisyExamples/DaisySP//Source/Utility/dsp.h **** 
  61:../../DaisyExamples/DaisySP//Source/Utility/dsp.h **** /** From Musicdsp.org "Fast power and root estimates for 32bit floats)
  62:../../DaisyExamples/DaisySP//Source/Utility/dsp.h **** Original code by Stefan Stenzel
  63:../../DaisyExamples/DaisySP//Source/Utility/dsp.h **** These are approximations
  64:../../DaisyExamples/DaisySP//Source/Utility/dsp.h **** */
  65:../../DaisyExamples/DaisySP//Source/Utility/dsp.h **** inline float fastpower(float f, int n)
  66:../../DaisyExamples/DaisySP//Source/Utility/dsp.h **** {
  67:../../DaisyExamples/DaisySP//Source/Utility/dsp.h ****     long *lp, l;
  68:../../DaisyExamples/DaisySP//Source/Utility/dsp.h ****     lp = (long *)(&f);
  69:../../DaisyExamples/DaisySP//Source/Utility/dsp.h ****     l  = *lp;
  70:../../DaisyExamples/DaisySP//Source/Utility/dsp.h ****     l -= 0x3F800000;
  71:../../DaisyExamples/DaisySP//Source/Utility/dsp.h ****     l <<= (n - 1);
  72:../../DaisyExamples/DaisySP//Source/Utility/dsp.h ****     l += 0x3F800000;
  73:../../DaisyExamples/DaisySP//Source/Utility/dsp.h ****     *lp = l;
  74:../../DaisyExamples/DaisySP//Source/Utility/dsp.h ****     return f;
  75:../../DaisyExamples/DaisySP//Source/Utility/dsp.h **** }
  76:../../DaisyExamples/DaisySP//Source/Utility/dsp.h **** 
  77:../../DaisyExamples/DaisySP//Source/Utility/dsp.h **** inline float fastroot(float f, int n)
  78:../../DaisyExamples/DaisySP//Source/Utility/dsp.h **** {
  79:../../DaisyExamples/DaisySP//Source/Utility/dsp.h ****     long *lp, l;
  80:../../DaisyExamples/DaisySP//Source/Utility/dsp.h ****     lp = (long *)(&f);
  81:../../DaisyExamples/DaisySP//Source/Utility/dsp.h ****     l  = *lp;
  82:../../DaisyExamples/DaisySP//Source/Utility/dsp.h ****     l -= 0x3F800000;
ARM GAS  C:\Users\Estudi\AppData\Local\Temp\ccjMGKtz.s 			page 47


  83:../../DaisyExamples/DaisySP//Source/Utility/dsp.h ****     l >>= (n = 1);
  84:../../DaisyExamples/DaisySP//Source/Utility/dsp.h ****     l += 0x3F800000;
  85:../../DaisyExamples/DaisySP//Source/Utility/dsp.h ****     *lp = l;
  86:../../DaisyExamples/DaisySP//Source/Utility/dsp.h ****     return f;
  87:../../DaisyExamples/DaisySP//Source/Utility/dsp.h **** }
  88:../../DaisyExamples/DaisySP//Source/Utility/dsp.h **** 
  89:../../DaisyExamples/DaisySP//Source/Utility/dsp.h **** /** From http://openaudio.blogspot.com/2017/02/faster-log10-and-pow.html
  90:../../DaisyExamples/DaisySP//Source/Utility/dsp.h **** No approximation, pow10f(x) gives a 90% speed increase over powf(10.f, x)
  91:../../DaisyExamples/DaisySP//Source/Utility/dsp.h **** */
  92:../../DaisyExamples/DaisySP//Source/Utility/dsp.h **** inline float pow10f(float f)
  93:../../DaisyExamples/DaisySP//Source/Utility/dsp.h **** {
  94:../../DaisyExamples/DaisySP//Source/Utility/dsp.h ****     return expf(2.302585092994046f * f);
  95:../../DaisyExamples/DaisySP//Source/Utility/dsp.h **** }
  96:../../DaisyExamples/DaisySP//Source/Utility/dsp.h **** 
  97:../../DaisyExamples/DaisySP//Source/Utility/dsp.h **** /* Original code for fastlog2f by Dr. Paul Beckmann from the ARM community forum, adapted from the 
  98:../../DaisyExamples/DaisySP//Source/Utility/dsp.h **** About 25% performance increase over std::log10f
  99:../../DaisyExamples/DaisySP//Source/Utility/dsp.h **** */
 100:../../DaisyExamples/DaisySP//Source/Utility/dsp.h **** inline float fastlog2f(float f)
 101:../../DaisyExamples/DaisySP//Source/Utility/dsp.h **** {
 102:../../DaisyExamples/DaisySP//Source/Utility/dsp.h ****     float frac;
 103:../../DaisyExamples/DaisySP//Source/Utility/dsp.h ****     int   exp;
 104:../../DaisyExamples/DaisySP//Source/Utility/dsp.h ****     frac = frexpf(fabsf(f), &exp);
 105:../../DaisyExamples/DaisySP//Source/Utility/dsp.h ****     f    = 1.23149591368684f;
 106:../../DaisyExamples/DaisySP//Source/Utility/dsp.h ****     f *= frac;
 107:../../DaisyExamples/DaisySP//Source/Utility/dsp.h ****     f += -4.11852516267426f;
 108:../../DaisyExamples/DaisySP//Source/Utility/dsp.h ****     f *= frac;
 109:../../DaisyExamples/DaisySP//Source/Utility/dsp.h ****     f += 6.02197014179219f;
 110:../../DaisyExamples/DaisySP//Source/Utility/dsp.h ****     f *= frac;
 111:../../DaisyExamples/DaisySP//Source/Utility/dsp.h ****     f += -3.13396450166353f;
 112:../../DaisyExamples/DaisySP//Source/Utility/dsp.h ****     f += exp;
 113:../../DaisyExamples/DaisySP//Source/Utility/dsp.h ****     return (f);
 114:../../DaisyExamples/DaisySP//Source/Utility/dsp.h **** }
 115:../../DaisyExamples/DaisySP//Source/Utility/dsp.h **** 
 116:../../DaisyExamples/DaisySP//Source/Utility/dsp.h **** inline float fastlog10f(float f)
 117:../../DaisyExamples/DaisySP//Source/Utility/dsp.h **** {
 118:../../DaisyExamples/DaisySP//Source/Utility/dsp.h ****     return fastlog2f(f) * 0.3010299956639812f;
 119:../../DaisyExamples/DaisySP//Source/Utility/dsp.h **** }
 120:../../DaisyExamples/DaisySP//Source/Utility/dsp.h **** 
 121:../../DaisyExamples/DaisySP//Source/Utility/dsp.h **** /** Midi to frequency helper
 122:../../DaisyExamples/DaisySP//Source/Utility/dsp.h **** */
 123:../../DaisyExamples/DaisySP//Source/Utility/dsp.h **** inline float mtof(float m)
 124:../../DaisyExamples/DaisySP//Source/Utility/dsp.h **** {
 125:../../DaisyExamples/DaisySP//Source/Utility/dsp.h ****     return powf(2, (m - 69.0f) / 12.0f) * 440.0f;
 126:../../DaisyExamples/DaisySP//Source/Utility/dsp.h **** }
 127:../../DaisyExamples/DaisySP//Source/Utility/dsp.h **** 
 128:../../DaisyExamples/DaisySP//Source/Utility/dsp.h **** 
 129:../../DaisyExamples/DaisySP//Source/Utility/dsp.h **** /** one pole lpf
 130:../../DaisyExamples/DaisySP//Source/Utility/dsp.h **** out is passed by reference, and must be retained between
 131:../../DaisyExamples/DaisySP//Source/Utility/dsp.h **** calls to properly filter the signal
 132:../../DaisyExamples/DaisySP//Source/Utility/dsp.h **** coeff can be calculated:
 133:../../DaisyExamples/DaisySP//Source/Utility/dsp.h **** coeff = 1.0 / (time * sample_rate) ; where time is in seconds
 134:../../DaisyExamples/DaisySP//Source/Utility/dsp.h **** */
 135:../../DaisyExamples/DaisySP//Source/Utility/dsp.h **** inline void fonepole(float &out, float in, float coeff)
 1409              		.loc 19 135 13 view .LVU362
 1410              	.LBB497:
 136:../../DaisyExamples/DaisySP//Source/Utility/dsp.h **** {
 137:../../DaisyExamples/DaisySP//Source/Utility/dsp.h ****     out += coeff * (in - out);
ARM GAS  C:\Users\Estudi\AppData\Local\Temp\ccjMGKtz.s 			page 48


 1411              		.loc 19 137 5 view .LVU363
 1412              		.loc 19 137 9 is_stmt 0 view .LVU364
 1413 0000 534B     		ldr	r3, .L51
 1414              	.LBE497:
 1415              	.LBE496:
 1416              		.loc 18 181 13 view .LVU365
 1417 0002 544A     		ldr	r2, .L51+4
 1418              	.LBB501:
 1419              	.LBB498:
 1420              		.loc 19 137 9 view .LVU366
 1421 0004 D3ED007A 		vldr.32	s15, [r3]
 1422              		.loc 19 137 24 view .LVU367
 1423 0008 92ED007A 		vldr.32	s14, [r2]
 1424              		.loc 19 137 9 view .LVU368
 1425 000c DFED526A 		vldr.32	s13, .L51+8
 1426              		.loc 19 137 24 view .LVU369
 1427 0010 37EE677A 		vsub.f32	s14, s14, s15
 1428              	.LBE498:
 1429              	.LBE501:
 1430              	.LBB502:
 1431              	.LBB503:
  55:../../DaisyExamples/DaisySP//Source/Utility/delayline.h ****         delay_ = static_cast<size_t>(int_delay) < max_size ? int_delay
 1432              		.loc 17 55 27 view .LVU370
 1433 0014 DFF854C1 		ldr	ip, .L51+28
 1434              	.LBE503:
 1435              	.LBE502:
 180:MultiFX.cpp   ****     fonepole(currentDelay, delayTarget, .00007f);
 1436              		.loc 18 180 1 view .LVU371
 1437 0018 2DE9F04F 		push	{r4, r5, r6, r7, r8, r9, r10, fp, lr}
 1438              		.cfi_def_cfa_offset 36
 1439              		.cfi_offset 4, -36
 1440              		.cfi_offset 5, -32
 1441              		.cfi_offset 6, -28
 1442              		.cfi_offset 7, -24
 1443              		.cfi_offset 8, -20
 1444              		.cfi_offset 9, -16
 1445              		.cfi_offset 10, -12
 1446              		.cfi_offset 11, -8
 1447              		.cfi_offset 14, -4
 1448              	.LBB506:
 1449              	.LBB499:
 1450              		.loc 19 137 9 view .LVU372
 1451 001c E7EE267A 		vfma.f32	s15, s14, s13
 1452              	.LBE499:
 1453              	.LBE506:
 1454              	.LBB507:
 1455              	.LBB508:
 1456              		.loc 17 56 60 view .LVU373
 1457 0020 4E4E     		ldr	r6, .L51+12
 1458              	.LBE508:
 1459              	.LBE507:
 1460              	.LBB513:
 1461              	.LBB514:
  57:../../DaisyExamples/DaisySP//Source/Utility/delayline.h ****                                                            : max_size - 1;
  58:../../DaisyExamples/DaisySP//Source/Utility/delayline.h ****     }
  59:../../DaisyExamples/DaisySP//Source/Utility/delayline.h **** 
  60:../../DaisyExamples/DaisySP//Source/Utility/delayline.h ****     /** writes the sample of type T to the delay line, and advances the write ptr
ARM GAS  C:\Users\Estudi\AppData\Local\Temp\ccjMGKtz.s 			page 49


  61:../../DaisyExamples/DaisySP//Source/Utility/delayline.h ****     */
  62:../../DaisyExamples/DaisySP//Source/Utility/delayline.h ****     inline void Write(const T sample)
  63:../../DaisyExamples/DaisySP//Source/Utility/delayline.h ****     {
  64:../../DaisyExamples/DaisySP//Source/Utility/delayline.h ****         line_[write_ptr_] = sample;
  65:../../DaisyExamples/DaisySP//Source/Utility/delayline.h ****         write_ptr_        = (write_ptr_ - 1 + max_size) % max_size;
  66:../../DaisyExamples/DaisySP//Source/Utility/delayline.h ****     }
  67:../../DaisyExamples/DaisySP//Source/Utility/delayline.h **** 
  68:../../DaisyExamples/DaisySP//Source/Utility/delayline.h ****     /** returns the next sample of type T in the delay line, interpolated if necessary.
  69:../../DaisyExamples/DaisySP//Source/Utility/delayline.h ****     */
  70:../../DaisyExamples/DaisySP//Source/Utility/delayline.h ****     inline const T Read() const
  71:../../DaisyExamples/DaisySP//Source/Utility/delayline.h ****     {
  72:../../DaisyExamples/DaisySP//Source/Utility/delayline.h ****         T a = line_[(write_ptr_ + delay_) % max_size];
 1462              		.loc 17 72 22 view .LVU374
 1463 0022 DCF80470 		ldr	r7, [ip, #4]
 1464              	.LBE514:
 1465              	.LBE513:
 182:MultiFX.cpp   ****     delr.SetDelay(currentDelay);
 183:MultiFX.cpp   ****     dell.SetDelay(currentDelay);
 184:MultiFX.cpp   ****     outl = dell.Read();
 185:MultiFX.cpp   ****     outr = delr.Read();
 186:MultiFX.cpp   **** 
 187:MultiFX.cpp   ****     dell.Write((feedback * outl) + inl);
 188:MultiFX.cpp   ****     outl = (feedback * outl) + ((1.0f - feedback) * inl);
 1466              		.loc 18 188 39 view .LVU375
 1467 0026 B7EE007A 		vmov.f32	s14, #1.0e+0
 1468              	.LBB524:
 1469              	.LBB515:
 1470              		.loc 17 72 43 view .LVU376
 1471 002a 4D4C     		ldr	r4, .L51+16
 1472 002c DFF840E1 		ldr	lr, .L51+32
 1473              	.LBE515:
 1474              	.LBE524:
 1475              	.LBB525:
 1476              	.LBB509:
  55:../../DaisyExamples/DaisySP//Source/Utility/delayline.h ****         delay_ = static_cast<size_t>(int_delay) < max_size ? int_delay
 1477              		.loc 17 55 27 view .LVU377
 1478 0030 4C4D     		ldr	r5, .L51+20
  54:../../DaisyExamples/DaisySP//Source/Utility/delayline.h ****         frac_             = delay - static_cast<float>(int_delay);
 1479              		.loc 17 54 17 view .LVU378
 1480 0032 FDEEE76A 		vcvt.s32.f32	s13, s15
 1481              	.LBE509:
 1482              	.LBE525:
 1483              	.LBB526:
 1484              	.LBB500:
 1485              		.loc 19 137 9 view .LVU379
 1486 0036 C3ED007A 		vstr.32	s15, [r3]
 1487              	.LVL71:
 1488              		.loc 19 137 9 view .LVU380
 1489              	.LBE500:
 1490              	.LBE526:
 182:MultiFX.cpp   ****     delr.SetDelay(currentDelay);
 1491              		.loc 18 182 5 is_stmt 1 view .LVU381
 1492              	.LBB527:
 1493              	.LBI507:
  52:../../DaisyExamples/DaisySP//Source/Utility/delayline.h ****     {
 1494              		.loc 17 52 17 view .LVU382
  52:../../DaisyExamples/DaisySP//Source/Utility/delayline.h ****     {
ARM GAS  C:\Users\Estudi\AppData\Local\Temp\ccjMGKtz.s 			page 50


 1495              		.loc 17 52 17 is_stmt 0 view .LVU383
 1496              	.LBE527:
 1497              	.LBB528:
 1498              	.LBB529:
 1499              		.loc 17 72 22 view .LVU384
 1500 003a D5F80490 		ldr	r9, [r5, #4]
 1501              	.LBE529:
 1502              	.LBE528:
 1503              	.LBB539:
 1504              	.LBB510:
  56:../../DaisyExamples/DaisySP//Source/Utility/delayline.h ****                                                            : max_size - 1;
 1505              		.loc 17 56 60 view .LVU385
 1506 003e 16EE903A 		vmov	r3, s13	@ int
  55:../../DaisyExamples/DaisySP//Source/Utility/delayline.h ****         delay_ = static_cast<size_t>(int_delay) < max_size ? int_delay
 1507              		.loc 17 55 37 view .LVU386
 1508 0042 F8EEE66A 		vcvt.f32.s32	s13, s13
 1509              	.LVL72:
  56:../../DaisyExamples/DaisySP//Source/Utility/delayline.h ****                                                            : max_size - 1;
 1510              		.loc 17 56 60 view .LVU387
 1511 0046 B342     		cmp	r3, r6
  55:../../DaisyExamples/DaisySP//Source/Utility/delayline.h ****         delay_ = static_cast<size_t>(int_delay) < max_size ? int_delay
 1512              		.loc 17 55 35 view .LVU388
 1513 0048 77EEE67A 		vsub.f32	s15, s15, s13
 1514              	.LVL73:
  56:../../DaisyExamples/DaisySP//Source/Utility/delayline.h ****                                                            : max_size - 1;
 1515              		.loc 17 56 60 view .LVU389
 1516 004c 28BF     		it	cs
 1517 004e 3346     		movcs	r3, r6
 1518              	.LVL74:
  56:../../DaisyExamples/DaisySP//Source/Utility/delayline.h ****                                                            : max_size - 1;
 1519              		.loc 17 56 60 view .LVU390
 1520              	.LBE510:
 1521              	.LBE539:
 1522              	.LBB540:
 1523              	.LBB516:
 1524              		.loc 17 72 33 view .LVU391
 1525 0050 DA19     		adds	r2, r3, r7
 1526              	.LBE516:
 1527              	.LBE540:
 1528              	.LBB541:
 1529              	.LBB511:
  56:../../DaisyExamples/DaisySP//Source/Utility/delayline.h ****                                                            : max_size - 1;
 1530              		.loc 17 56 16 view .LVU392
 1531 0052 AB60     		str	r3, [r5, #8]
 1532              	.LVL75:
  56:../../DaisyExamples/DaisySP//Source/Utility/delayline.h ****                                                            : max_size - 1;
 1533              		.loc 17 56 16 view .LVU393
 1534              	.LBE511:
 1535              	.LBE541:
 183:MultiFX.cpp   ****     outl = dell.Read();
 1536              		.loc 18 183 5 is_stmt 1 view .LVU394
 1537              	.LBB542:
 1538              	.LBI502:
  52:../../DaisyExamples/DaisySP//Source/Utility/delayline.h ****     {
 1539              		.loc 17 52 17 view .LVU395
 1540              	.LBB504:
  56:../../DaisyExamples/DaisySP//Source/Utility/delayline.h ****                                                            : max_size - 1;
ARM GAS  C:\Users\Estudi\AppData\Local\Temp\ccjMGKtz.s 			page 51


 1541              		.loc 17 56 16 is_stmt 0 view .LVU396
 1542 0054 CCF80830 		str	r3, [ip, #8]
 1543              	.LVL76:
  56:../../DaisyExamples/DaisySP//Source/Utility/delayline.h ****                                                            : max_size - 1;
 1544              		.loc 17 56 16 view .LVU397
 1545              	.LBE504:
 1546              	.LBE542:
 184:MultiFX.cpp   ****     outr = delr.Read();
 1547              		.loc 18 184 5 is_stmt 1 view .LVU398
 1548              	.LBB543:
 1549              	.LBI513:
  70:../../DaisyExamples/DaisySP//Source/Utility/delayline.h ****     {
 1550              		.loc 17 70 20 view .LVU399
 1551              	.LBE543:
 1552              	.LBB544:
 1553              	.LBB530:
 1554              		.loc 17 72 33 is_stmt 0 view .LVU400
 1555 0058 4B44     		add	r3, r3, r9
 1556              	.LBE530:
 1557              	.LBE544:
 1558              	.LBB545:
 1559              	.LBB517:
 1560              		.loc 17 72 43 view .LVU401
 1561 005a A4FB028B 		umull	r8, fp, r4, r2
  73:../../DaisyExamples/DaisySP//Source/Utility/delayline.h ****         T b = line_[(write_ptr_ + delay_ + 1) % max_size];
 1562              		.loc 17 73 42 view .LVU402
 1563 005e 02F1010A 		add	r10, r2, #1
 1564              	.LBE517:
 1565              	.LBE545:
 1566              	.LBB546:
 1567              	.LBB512:
  55:../../DaisyExamples/DaisySP//Source/Utility/delayline.h ****         delay_ = static_cast<size_t>(int_delay) < max_size ? int_delay
 1568              		.loc 17 55 27 view .LVU403
 1569 0062 C5ED007A 		vstr.32	s15, [r5]
 1570              	.LBE512:
 1571              	.LBE546:
 1572              	.LBB547:
 1573              	.LBB518:
  72:../../DaisyExamples/DaisySP//Source/Utility/delayline.h ****         T b = line_[(write_ptr_ + delay_ + 1) % max_size];
 1574              		.loc 17 72 43 view .LVU404
 1575 0066 4FEADB3B 		lsr	fp, fp, #15
 1576              	.LBE518:
 1577              	.LBE547:
 1578              	.LBB548:
 1579              	.LBB505:
  55:../../DaisyExamples/DaisySP//Source/Utility/delayline.h ****         delay_ = static_cast<size_t>(int_delay) < max_size ? int_delay
 1580              		.loc 17 55 27 view .LVU405
 1581 006a CCED007A 		vstr.32	s15, [ip]
 1582              	.LBE505:
 1583              	.LBE548:
 1584              	.LBB549:
 1585              	.LBB519:
  72:../../DaisyExamples/DaisySP//Source/Utility/delayline.h ****         T b = line_[(write_ptr_ + delay_ + 1) % max_size];
 1586              		.loc 17 72 43 view .LVU406
 1587 006e 0EFB1B22 		mls	r2, lr, fp, r2
  72:../../DaisyExamples/DaisySP//Source/Utility/delayline.h ****         T b = line_[(write_ptr_ + delay_ + 1) % max_size];
 1588              		.loc 17 72 11 view .LVU407
ARM GAS  C:\Users\Estudi\AppData\Local\Temp\ccjMGKtz.s 			page 52


 1589 0072 0CEB8202 		add	r2, ip, r2, lsl #2
 1590 0076 D2ED036A 		vldr.32	s13, [r2, #12]
 1591              	.LVL77:
 1592              		.loc 17 73 47 view .LVU408
 1593 007a A4FB0A82 		umull	r8, r2, r4, r10
 1594 007e D20B     		lsrs	r2, r2, #15
 1595 0080 0EFB12AA 		mls	r10, lr, r2, r10
 1596              	.LVL78:
 1597              		.loc 17 73 47 view .LVU409
 1598              	.LBE519:
 1599              	.LBE549:
 1600              	.LBB550:
 1601              	.LBB531:
  72:../../DaisyExamples/DaisySP//Source/Utility/delayline.h ****         T b = line_[(write_ptr_ + delay_ + 1) % max_size];
 1602              		.loc 17 72 43 view .LVU410
 1603 0084 A4FB0382 		umull	r8, r2, r4, r3
 1604              	.LBE531:
 1605              	.LBE550:
 1606              	.LBB551:
 1607              	.LBB520:
 1608              		.loc 17 73 11 view .LVU411
 1609 0088 0CEB8A0A 		add	r10, ip, r10, lsl #2
 1610              	.LBE520:
 1611              	.LBE551:
 1612              	.LBB552:
 1613              	.LBB532:
  72:../../DaisyExamples/DaisySP//Source/Utility/delayline.h ****         T b = line_[(write_ptr_ + delay_ + 1) % max_size];
 1614              		.loc 17 72 43 view .LVU412
 1615 008c D20B     		lsrs	r2, r2, #15
 1616              	.LBE532:
 1617              	.LBE552:
 1618              	.LBB553:
 1619              	.LBB521:
  74:../../DaisyExamples/DaisySP//Source/Utility/delayline.h ****         return a + (b - a) * frac_;
 1620              		.loc 17 74 23 view .LVU413
 1621 008e 9AED036A 		vldr.32	s12, [r10, #12]
 1622              	.LBE521:
 1623              	.LBE553:
 1624              	.LBB554:
 1625              	.LBB533:
  73:../../DaisyExamples/DaisySP//Source/Utility/delayline.h ****         return a + (b - a) * frac_;
 1626              		.loc 17 73 42 view .LVU414
 1627 0092 03F1010A 		add	r10, r3, #1
  72:../../DaisyExamples/DaisySP//Source/Utility/delayline.h ****         T b = line_[(write_ptr_ + delay_ + 1) % max_size];
 1628              		.loc 17 72 43 view .LVU415
 1629 0096 0EFB1232 		mls	r2, lr, r2, r3
 1630              	.LBE533:
 1631              	.LBE554:
 1632              	.LBB555:
 1633              	.LBB522:
 1634              		.loc 17 74 23 view .LVU416
 1635 009a 36EE666A 		vsub.f32	s12, s12, s13
 1636              	.LBE522:
 1637              	.LBE555:
 1638              	.LBB556:
 1639              	.LBB534:
  72:../../DaisyExamples/DaisySP//Source/Utility/delayline.h ****         T b = line_[(write_ptr_ + delay_ + 1) % max_size];
ARM GAS  C:\Users\Estudi\AppData\Local\Temp\ccjMGKtz.s 			page 53


 1640              		.loc 17 72 11 view .LVU417
 1641 009e 05EB8202 		add	r2, r5, r2, lsl #2
 1642              	.LBE534:
 1643              	.LBE556:
 1644              	.LBB557:
 1645              	.LBB523:
 1646              		.loc 17 74 30 view .LVU418
 1647 00a2 E7EE866A 		vfma.f32	s13, s15, s12
 1648              	.LVL79:
 1649              		.loc 17 74 30 view .LVU419
 1650              	.LBE523:
 1651              	.LBE557:
 184:MultiFX.cpp   ****     outr = delr.Read();
 1652              		.loc 18 184 10 view .LVU420
 1653 00a6 C0ED006A 		vstr.32	s13, [r0]
 185:MultiFX.cpp   **** 
 1654              		.loc 18 185 5 is_stmt 1 view .LVU421
 1655              	.LVL80:
 1656              	.LBB558:
 1657              	.LBI528:
  70:../../DaisyExamples/DaisySP//Source/Utility/delayline.h ****     {
 1658              		.loc 17 70 20 view .LVU422
 1659              	.LBB535:
  72:../../DaisyExamples/DaisySP//Source/Utility/delayline.h ****         T b = line_[(write_ptr_ + delay_ + 1) % max_size];
 1660              		.loc 17 72 11 is_stmt 0 view .LVU423
 1661 00aa D2ED037A 		vldr.32	s15, [r2, #12]
 1662              	.LVL81:
  73:../../DaisyExamples/DaisySP//Source/Utility/delayline.h ****         return a + (b - a) * frac_;
 1663              		.loc 17 73 47 view .LVU424
 1664 00ae A4FB0A23 		umull	r2, r3, r4, r10
 1665              	.LVL82:
 1666              		.loc 17 74 30 view .LVU425
 1667 00b2 95ED006A 		vldr.32	s12, [r5]
  73:../../DaisyExamples/DaisySP//Source/Utility/delayline.h ****         return a + (b - a) * frac_;
 1668              		.loc 17 73 47 view .LVU426
 1669 00b6 DB0B     		lsrs	r3, r3, #15
 1670              	.LBE535:
 1671              	.LBE558:
 187:MultiFX.cpp   ****     outl = (feedback * outl) + ((1.0f - feedback) * inl);
 1672              		.loc 18 187 26 view .LVU427
 1673 00b8 2B4A     		ldr	r2, .L51+24
 1674              	.LBB559:
 1675              	.LBB536:
  73:../../DaisyExamples/DaisySP//Source/Utility/delayline.h ****         return a + (b - a) * frac_;
 1676              		.loc 17 73 47 view .LVU428
 1677 00ba 0EFB13AA 		mls	r10, lr, r3, r10
 1678              	.LVL83:
  73:../../DaisyExamples/DaisySP//Source/Utility/delayline.h ****         return a + (b - a) * frac_;
 1679              		.loc 17 73 47 view .LVU429
 1680              	.LBE536:
 1681              	.LBE559:
 1682              	.LBB560:
 1683              	.LBB561:
  64:../../DaisyExamples/DaisySP//Source/Utility/delayline.h ****         write_ptr_        = (write_ptr_ - 1 + max_size) % max_size;
 1684              		.loc 17 64 27 view .LVU430
 1685 00be 0CEB8703 		add	r3, ip, r7, lsl #2
  65:../../DaisyExamples/DaisySP//Source/Utility/delayline.h ****     }
ARM GAS  C:\Users\Estudi\AppData\Local\Temp\ccjMGKtz.s 			page 54


 1686              		.loc 17 65 45 view .LVU431
 1687 00c2 3744     		add	r7, r7, r6
 1688              	.LBE561:
 1689              	.LBE560:
 1690              	.LBB567:
 1691              	.LBB568:
 1692 00c4 4E44     		add	r6, r6, r9
 1693              	.LBE568:
 1694              	.LBE567:
 1695              	.LBB575:
 1696              	.LBB537:
  73:../../DaisyExamples/DaisySP//Source/Utility/delayline.h ****         return a + (b - a) * frac_;
 1697              		.loc 17 73 11 view .LVU432
 1698 00c6 05EB8A0A 		add	r10, r5, r10, lsl #2
 1699              	.LBE537:
 1700              	.LBE575:
 1701              	.LBB576:
 1702              	.LBB569:
  64:../../DaisyExamples/DaisySP//Source/Utility/delayline.h ****         write_ptr_        = (write_ptr_ - 1 + max_size) % max_size;
 1703              		.loc 17 64 27 view .LVU433
 1704 00ca 05EB8909 		add	r9, r5, r9, lsl #2
 1705              	.LVL84:
  64:../../DaisyExamples/DaisySP//Source/Utility/delayline.h ****         write_ptr_        = (write_ptr_ - 1 + max_size) % max_size;
 1706              		.loc 17 64 27 view .LVU434
 1707              	.LBE569:
 1708              	.LBE576:
 1709              	.LBB577:
 1710              	.LBB538:
 1711              		.loc 17 74 23 view .LVU435
 1712 00ce DAED036A 		vldr.32	s13, [r10, #12]
 1713 00d2 76EEE76A 		vsub.f32	s13, s13, s15
 1714              		.loc 17 74 30 view .LVU436
 1715 00d6 E6EE867A 		vfma.f32	s15, s13, s12
 1716              	.LVL85:
 1717              		.loc 17 74 30 view .LVU437
 1718              	.LBE538:
 1719              	.LBE577:
 187:MultiFX.cpp   ****     outl = (feedback * outl) + ((1.0f - feedback) * inl);
 1720              		.loc 18 187 15 view .LVU438
 1721 00da B0EE406A 		vmov.f32	s12, s0
 185:MultiFX.cpp   **** 
 1722              		.loc 18 185 10 view .LVU439
 1723 00de C1ED007A 		vstr.32	s15, [r1]
 187:MultiFX.cpp   ****     outl = (feedback * outl) + ((1.0f - feedback) * inl);
 1724              		.loc 18 187 5 is_stmt 1 view .LVU440
 187:MultiFX.cpp   ****     outl = (feedback * outl) + ((1.0f - feedback) * inl);
 1725              		.loc 18 187 15 is_stmt 0 view .LVU441
 1726 00e2 D0ED007A 		vldr.32	s15, [r0]
 187:MultiFX.cpp   ****     outl = (feedback * outl) + ((1.0f - feedback) * inl);
 1727              		.loc 18 187 26 view .LVU442
 1728 00e6 D2ED006A 		vldr.32	s13, [r2]
 187:MultiFX.cpp   ****     outl = (feedback * outl) + ((1.0f - feedback) * inl);
 1729              		.loc 18 187 15 view .LVU443
 1730 00ea A7EEA66A 		vfma.f32	s12, s15, s13
 1731              	.LVL86:
 1732              	.LBB578:
 1733              	.LBI560:
ARM GAS  C:\Users\Estudi\AppData\Local\Temp\ccjMGKtz.s 			page 55


  62:../../DaisyExamples/DaisySP//Source/Utility/delayline.h ****     {
 1734              		.loc 17 62 17 is_stmt 1 view .LVU444
 1735              	.LBE578:
 1736              		.loc 18 188 39 is_stmt 0 view .LVU445
 1737 00ee 77EE667A 		vsub.f32	s15, s14, s13
 1738              		.loc 18 188 51 view .LVU446
 1739 00f2 27EE800A 		vmul.f32	s0, s15, s0
 1740              	.LVL87:
 1741              	.LBB579:
 1742              	.LBB562:
  64:../../DaisyExamples/DaisySP//Source/Utility/delayline.h ****         write_ptr_        = (write_ptr_ - 1 + max_size) % max_size;
 1743              		.loc 17 64 27 view .LVU447
 1744 00f6 83ED036A 		vstr.32	s12, [r3, #12]
 1745              	.LBE562:
 1746              	.LBE579:
 189:MultiFX.cpp   **** 
 190:MultiFX.cpp   ****     delr.Write((feedback * outr) + inr);
 1747              		.loc 18 190 15 view .LVU448
 1748 00fa B0EE606A 		vmov.f32	s12, s1
 1749              	.LVL88:
 188:MultiFX.cpp   **** 
 1750              		.loc 18 188 30 view .LVU449
 1751 00fe D0ED007A 		vldr.32	s15, [r0]
 1752              	.LBB580:
 1753              	.LBB563:
  65:../../DaisyExamples/DaisySP//Source/Utility/delayline.h ****     }
 1754              		.loc 17 65 57 view .LVU450
 1755 0102 A4FB0732 		umull	r3, r2, r4, r7
 1756              	.LVL89:
  65:../../DaisyExamples/DaisySP//Source/Utility/delayline.h ****     }
 1757              		.loc 17 65 57 view .LVU451
 1758              	.LBE563:
 1759              	.LBE580:
 1760              	.LBB581:
 1761              	.LBB570:
 1762 0106 A4FB0643 		umull	r4, r3, r4, r6
 1763              	.LBE570:
 1764              	.LBE581:
 188:MultiFX.cpp   **** 
 1765              		.loc 18 188 30 view .LVU452
 1766 010a A6EEA70A 		vfma.f32	s0, s13, s15
 1767              	.LBB582:
 1768              	.LBB564:
  65:../../DaisyExamples/DaisySP//Source/Utility/delayline.h ****     }
 1769              		.loc 17 65 57 view .LVU453
 1770 010e D20B     		lsrs	r2, r2, #15
 1771              	.LBE564:
 1772              	.LBE582:
 1773              	.LBB583:
 1774              	.LBB571:
 1775 0110 DB0B     		lsrs	r3, r3, #15
 1776              	.LBE571:
 1777              	.LBE583:
 1778              	.LBB584:
 1779              	.LBB565:
 1780 0112 0EFB1277 		mls	r7, lr, r2, r7
 1781              	.LVL90:
ARM GAS  C:\Users\Estudi\AppData\Local\Temp\ccjMGKtz.s 			page 56


  65:../../DaisyExamples/DaisySP//Source/Utility/delayline.h ****     }
 1782              		.loc 17 65 57 view .LVU454
 1783              	.LBE565:
 1784              	.LBE584:
 1785              		.loc 18 190 26 view .LVU455
 1786 0116 144A     		ldr	r2, .L51+24
 1787              	.LBB585:
 1788              	.LBB572:
  65:../../DaisyExamples/DaisySP//Source/Utility/delayline.h ****     }
 1789              		.loc 17 65 57 view .LVU456
 1790 0118 0EFB1366 		mls	r6, lr, r3, r6
 1791              	.LBE572:
 1792              	.LBE585:
 1793              	.LBB586:
 1794              	.LBB566:
  65:../../DaisyExamples/DaisySP//Source/Utility/delayline.h ****     }
 1795              		.loc 17 65 27 view .LVU457
 1796 011c CCF80470 		str	r7, [ip, #4]
 1797              	.LVL91:
  65:../../DaisyExamples/DaisySP//Source/Utility/delayline.h ****     }
 1798              		.loc 17 65 27 view .LVU458
 1799              	.LBE566:
 1800              	.LBE586:
 188:MultiFX.cpp   **** 
 1801              		.loc 18 188 5 is_stmt 1 view .LVU459
 188:MultiFX.cpp   **** 
 1802              		.loc 18 188 10 is_stmt 0 view .LVU460
 1803 0120 80ED000A 		vstr.32	s0, [r0]
 1804              		.loc 18 190 5 is_stmt 1 view .LVU461
 1805              		.loc 18 190 26 is_stmt 0 view .LVU462
 1806 0124 D2ED006A 		vldr.32	s13, [r2]
 1807              		.loc 18 190 15 view .LVU463
 1808 0128 D1ED005A 		vldr.32	s11, [r1]
 191:MultiFX.cpp   ****     outr = (feedback * outr) + ((1.0f - feedback) * inr);
 1809              		.loc 18 191 39 view .LVU464
 1810 012c 77EE667A 		vsub.f32	s15, s14, s13
 1811              	.LBB587:
 1812              	.LBB573:
  65:../../DaisyExamples/DaisySP//Source/Utility/delayline.h ****     }
 1813              		.loc 17 65 27 view .LVU465
 1814 0130 6E60     		str	r6, [r5, #4]
 1815              	.LBE573:
 1816              	.LBE587:
 190:MultiFX.cpp   ****     outr = (feedback * outr) + ((1.0f - feedback) * inr);
 1817              		.loc 18 190 15 view .LVU466
 1818 0132 A5EEA66A 		vfma.f32	s12, s11, s13
 1819              	.LVL92:
 1820              	.LBB588:
 1821              	.LBI567:
  62:../../DaisyExamples/DaisySP//Source/Utility/delayline.h ****     {
 1822              		.loc 17 62 17 is_stmt 1 view .LVU467
  62:../../DaisyExamples/DaisySP//Source/Utility/delayline.h ****     {
 1823              		.loc 17 62 17 is_stmt 0 view .LVU468
 1824              	.LBE588:
 1825              		.loc 18 191 5 is_stmt 1 view .LVU469
 1826              		.loc 18 191 51 is_stmt 0 view .LVU470
 1827 0136 27EEA07A 		vmul.f32	s14, s15, s1
ARM GAS  C:\Users\Estudi\AppData\Local\Temp\ccjMGKtz.s 			page 57


 1828              	.LBB589:
 1829              	.LBB574:
  64:../../DaisyExamples/DaisySP//Source/Utility/delayline.h ****         write_ptr_        = (write_ptr_ - 1 + max_size) % max_size;
 1830              		.loc 17 64 27 view .LVU471
 1831 013a 89ED036A 		vstr.32	s12, [r9, #12]
 1832              	.LBE574:
 1833              	.LBE589:
 1834              		.loc 18 191 30 view .LVU472
 1835 013e D1ED007A 		vldr.32	s15, [r1]
 1836 0142 A6EEA77A 		vfma.f32	s14, s13, s15
 1837              		.loc 18 191 10 view .LVU473
 1838 0146 81ED007A 		vstr.32	s14, [r1]
 192:MultiFX.cpp   **** }
 1839              		.loc 18 192 1 view .LVU474
 1840 014a BDE8F08F 		pop	{r4, r5, r6, r7, r8, r9, r10, fp, pc}
 1841              	.L52:
 1842 014e 00BF     		.align	2
 1843              	.L51:
 1844 0150 00000000 		.word	.LANCHOR7
 1845 0154 00000000 		.word	.LANCHOR6
 1846 0158 F7CC9238 		.word	949144823
 1847 015c BFD40100 		.word	119999
 1848 0160 73B2E745 		.word	1172812403
 1849 0164 00000000 		.word	_ZL4delr
 1850 0168 00000000 		.word	.LANCHOR9
 1851 016c 0C530700 		.word	_ZL4dell
 1852 0170 C0D40100 		.word	120000
 1853              		.cfi_endproc
 1854              	.LFE4802:
 1856              		.section	.text._Z13AudioCallbackPKfPfj,"ax",%progbits
 1857              		.align	1
 1858              		.p2align 2,,3
 1859              		.global	_Z13AudioCallbackPKfPfj
 1860              		.syntax unified
 1861              		.thumb
 1862              		.thumb_func
 1863              		.fpu fpv5-d16
 1865              	_Z13AudioCallbackPKfPfj:
 1866              	.LVL93:
 1867              	.LFB4795:
  44:MultiFX.cpp   ****     float outl, outr, inl, inr;
 1868              		.loc 18 44 1 is_stmt 1 view -0
 1869              		.cfi_startproc
 1870              		@ args = 0, pretend = 0, frame = 16
 1871              		@ frame_needed = 0, uses_anonymous_args = 0
  45:MultiFX.cpp   **** 
 1872              		.loc 18 45 5 view .LVU476
  47:MultiFX.cpp   **** 
 1873              		.loc 18 47 5 view .LVU477
  44:MultiFX.cpp   ****     float outl, outr, inl, inr;
 1874              		.loc 18 44 1 is_stmt 0 view .LVU478
 1875 0000 2DE9F047 		push	{r4, r5, r6, r7, r8, r9, r10, lr}
 1876              		.cfi_def_cfa_offset 32
 1877              		.cfi_offset 4, -32
 1878              		.cfi_offset 5, -28
 1879              		.cfi_offset 6, -24
 1880              		.cfi_offset 7, -20
ARM GAS  C:\Users\Estudi\AppData\Local\Temp\ccjMGKtz.s 			page 58


 1881              		.cfi_offset 8, -16
 1882              		.cfi_offset 9, -12
 1883              		.cfi_offset 10, -8
 1884              		.cfi_offset 14, -4
 1885 0004 1746     		mov	r7, r2
 1886 0006 0546     		mov	r5, r0
 1887 0008 0C46     		mov	r4, r1
 1888 000a 2DED028B 		vpush.64	{d8}
 1889              		.cfi_def_cfa_offset 40
 1890              		.cfi_offset 80, -40
 1891              		.cfi_offset 81, -36
 1892 000e 86B0     		sub	sp, sp, #24
 1893              		.cfi_def_cfa_offset 64
  47:MultiFX.cpp   **** 
 1894              		.loc 18 47 13 view .LVU479
 1895 0010 FFF7FEFF 		bl	_Z8Controlsv
 1896              	.LVL94:
  50:MultiFX.cpp   ****     {
 1897              		.loc 18 50 5 is_stmt 1 view .LVU480
 1898              	.LBB599:
  50:MultiFX.cpp   ****     {
 1899              		.loc 18 50 25 view .LVU481
 1900 0014 002F     		cmp	r7, #0
 1901 0016 71D0     		beq	.L53
 1902 0018 013F     		subs	r7, r7, #1
 1903              	.LVL95:
  50:MultiFX.cpp   ****     {
 1904              		.loc 18 50 25 is_stmt 0 view .LVU482
 1905 001a 0026     		movs	r6, #0
 1906 001c DFF80481 		ldr	r8, .L65+28
 1907 0020 7F08     		lsrs	r7, r7, #1
 1908              	.LVL96:
  50:MultiFX.cpp   ****     {
 1909              		.loc 18 50 25 view .LVU483
 1910 0022 16E0     		b	.L61
 1911              	.LVL97:
 1912              	.L64:
  55:MultiFX.cpp   ****         {
 1913              		.loc 18 55 9 view .LVU484
 1914 0024 002B     		cmp	r3, #0
 1915 0026 49D0     		beq	.L63
  60:MultiFX.cpp   ****         }
 1916              		.loc 18 60 13 is_stmt 1 view .LVU485
  60:MultiFX.cpp   ****         }
 1917              		.loc 18 60 22 view .LVU486
  60:MultiFX.cpp   ****         }
 1918              		.loc 18 60 34 is_stmt 0 view .LVU487
 1919 0028 DFED377A 		vldr.32	s15, .L65
  60:MultiFX.cpp   ****         }
 1920              		.loc 18 60 27 view .LVU488
 1921 002c B0EE670A 		vmov.f32	s0, s15
 1922              	.LVL98:
  60:MultiFX.cpp   ****         }
 1923              		.loc 18 60 34 view .LVU489
 1924 0030 CDED037A 		vstr.32	s15, [sp, #12]
  60:MultiFX.cpp   ****         }
 1925              		.loc 18 60 27 view .LVU490
ARM GAS  C:\Users\Estudi\AppData\Local\Temp\ccjMGKtz.s 			page 59


 1926 0034 CDED027A 		vstr.32	s15, [sp, #8]
 1927              	.LVL99:
 1928              	.L58:
  64:MultiFX.cpp   **** 
 1929              		.loc 18 64 9 is_stmt 1 discriminator 2 view .LVU491
  50:MultiFX.cpp   ****     {
 1930              		.loc 18 50 25 is_stmt 0 discriminator 2 view .LVU492
 1931 0038 BE42     		cmp	r6, r7
  64:MultiFX.cpp   **** 
 1932              		.loc 18 64 16 discriminator 2 view .LVU493
 1933 003a C4ED007A 		vstr.32	s15, [r4]
  67:MultiFX.cpp   ****     }
 1934              		.loc 18 67 9 is_stmt 1 discriminator 2 view .LVU494
  67:MultiFX.cpp   ****     }
 1935              		.loc 18 67 20 is_stmt 0 discriminator 2 view .LVU495
 1936 003e 84ED010A 		vstr.32	s0, [r4, #4]
  50:MultiFX.cpp   ****     {
 1937              		.loc 18 50 5 is_stmt 1 discriminator 2 view .LVU496
 1938              	.LVL100:
  50:MultiFX.cpp   ****     {
 1939              		.loc 18 50 25 discriminator 2 view .LVU497
 1940 0042 06F10103 		add	r3, r6, #1
 1941 0046 05F10805 		add	r5, r5, #8
 1942 004a 04F10804 		add	r4, r4, #8
 1943 004e 55D0     		beq	.L53
  50:MultiFX.cpp   ****     {
 1944              		.loc 18 50 25 is_stmt 0 discriminator 2 view .LVU498
 1945 0050 1E46     		mov	r6, r3
 1946              	.LVL101:
 1947              	.L61:
  52:MultiFX.cpp   ****         inr = in[i + 1];
 1948              		.loc 18 52 9 is_stmt 1 view .LVU499
  55:MultiFX.cpp   ****         {
 1949              		.loc 18 55 9 is_stmt 0 view .LVU500
 1950 0052 D8F80030 		ldr	r3, [r8]
  52:MultiFX.cpp   ****         inr = in[i + 1];
 1951              		.loc 18 52 13 view .LVU501
 1952 0056 95ED000A 		vldr.32	s0, [r5]
 1953              	.LVL102:
  53:MultiFX.cpp   **** 
 1954              		.loc 18 53 9 is_stmt 1 view .LVU502
  55:MultiFX.cpp   ****         {
 1955              		.loc 18 55 9 is_stmt 0 view .LVU503
 1956 005a 012B     		cmp	r3, #1
  53:MultiFX.cpp   **** 
 1957              		.loc 18 53 13 view .LVU504
 1958 005c 95ED018A 		vldr.32	s16, [r5, #4]
 1959              	.LVL103:
  55:MultiFX.cpp   ****         {
 1960              		.loc 18 55 9 is_stmt 1 view .LVU505
 1961 0060 21D0     		beq	.L55
 1962 0062 022B     		cmp	r3, #2
 1963 0064 DED1     		bne	.L64
  59:MultiFX.cpp   ****             default: outl = outr = 0;
 1964              		.loc 18 59 13 view .LVU506
  59:MultiFX.cpp   ****             default: outl = outr = 0;
 1965              		.loc 18 59 23 view .LVU507
ARM GAS  C:\Users\Estudi\AppData\Local\Temp\ccjMGKtz.s 			page 60


 1966              	.LVL104:
 1967              	.LBB600:
 1968              	.LBI600:
 193:MultiFX.cpp   **** 
 194:MultiFX.cpp   **** void GetCrushSample(float &outl, float &outr, float inl, float inr)
 1969              		.loc 18 194 6 view .LVU508
 1970              	.LBB601:
 195:MultiFX.cpp   **** {
 196:MultiFX.cpp   ****     crushcount++;
 1971              		.loc 18 196 5 view .LVU509
 197:MultiFX.cpp   ****     crushcount %= crushmod;
 1972              		.loc 18 197 5 view .LVU510
 196:MultiFX.cpp   ****     crushcount %= crushmod;
 1973              		.loc 18 196 15 is_stmt 0 view .LVU511
 1974 0066 294A     		ldr	r2, .L65+4
 1975              		.loc 18 197 16 view .LVU512
 1976 0068 2949     		ldr	r1, .L65+8
 196:MultiFX.cpp   ****     crushcount %= crushmod;
 1977              		.loc 18 196 15 view .LVU513
 1978 006a 1368     		ldr	r3, [r2]
 1979              		.loc 18 197 16 view .LVU514
 1980 006c 0968     		ldr	r1, [r1]
 196:MultiFX.cpp   ****     crushcount %= crushmod;
 1981              		.loc 18 196 15 view .LVU515
 1982 006e 0133     		adds	r3, r3, #1
 1983              		.loc 18 197 16 view .LVU516
 1984 0070 93FBF1F0 		sdiv	r0, r3, r1
 1985 0074 01FB1033 		mls	r3, r1, r0, r3
 1986 0078 1360     		str	r3, [r2]
 198:MultiFX.cpp   ****     if(crushcount == 0)
 1987              		.loc 18 198 5 is_stmt 1 view .LVU517
 1988 007a 2BB9     		cbnz	r3, .L59
 199:MultiFX.cpp   ****     {
 200:MultiFX.cpp   ****         crushsr = inr;
 1989              		.loc 18 200 9 view .LVU518
 1990              		.loc 18 200 17 is_stmt 0 view .LVU519
 1991 007c 254B     		ldr	r3, .L65+12
 1992 007e 83ED008A 		vstr.32	s16, [r3]
 201:MultiFX.cpp   ****         crushsl = inl;
 1993              		.loc 18 201 9 is_stmt 1 view .LVU520
 1994              		.loc 18 201 17 is_stmt 0 view .LVU521
 1995 0082 254B     		ldr	r3, .L65+16
 1996 0084 83ED000A 		vstr.32	s0, [r3]
 1997              	.L59:
 202:MultiFX.cpp   ****     }
 203:MultiFX.cpp   ****     outl = tone.Process(crushsl);
 1998              		.loc 18 203 5 is_stmt 1 view .LVU522
 1999              		.loc 18 203 24 is_stmt 0 view .LVU523
 2000 0088 2349     		ldr	r1, .L65+16
 2001 008a 2448     		ldr	r0, .L65+20
 2002 008c FFF7FEFF 		bl	_ZN7daisysp4Tone7ProcessERf
 2003              	.LVL105:
 204:MultiFX.cpp   ****     outr = tone.Process(crushsr);
 2004              		.loc 18 204 24 view .LVU524
 2005 0090 2049     		ldr	r1, .L65+12
 2006 0092 2248     		ldr	r0, .L65+20
 203:MultiFX.cpp   ****     outr = tone.Process(crushsr);
ARM GAS  C:\Users\Estudi\AppData\Local\Temp\ccjMGKtz.s 			page 61


 2007              		.loc 18 203 10 view .LVU525
 2008 0094 8DED020A 		vstr.32	s0, [sp, #8]
 2009              		.loc 18 204 5 is_stmt 1 view .LVU526
 2010              		.loc 18 204 24 is_stmt 0 view .LVU527
 2011 0098 FFF7FEFF 		bl	_ZN7daisysp4Tone7ProcessERf
 2012              	.LVL106:
 2013              	.LBE601:
 2014              	.LBE600:
  64:MultiFX.cpp   **** 
 2015              		.loc 18 64 16 view .LVU528
 2016 009c DDED027A 		vldr.32	s15, [sp, #8]
 2017              	.LBB603:
 2018              	.LBB602:
 2019              		.loc 18 204 10 view .LVU529
 2020 00a0 8DED030A 		vstr.32	s0, [sp, #12]
 205:MultiFX.cpp   **** }
 2021              		.loc 18 205 1 view .LVU530
 2022 00a4 C8E7     		b	.L58
 2023              	.LVL107:
 2024              	.L55:
 2025              		.loc 18 205 1 view .LVU531
 2026              	.LBE602:
 2027              	.LBE603:
  58:MultiFX.cpp   ****             case CRU: GetCrushSample(outl, outr, inl, inr); break;
 2028              		.loc 18 58 13 is_stmt 1 view .LVU532
  58:MultiFX.cpp   ****             case CRU: GetCrushSample(outl, outr, inl, inr); break;
 2029              		.loc 18 58 23 view .LVU533
  58:MultiFX.cpp   ****             case CRU: GetCrushSample(outl, outr, inl, inr); break;
 2030              		.loc 18 58 37 is_stmt 0 view .LVU534
 2031 00a6 F0EE480A 		vmov.f32	s1, s16
 2032 00aa 03A9     		add	r1, sp, #12
 2033 00ac 02A8     		add	r0, sp, #8
 2034 00ae FFF7FEFF 		bl	_Z14GetDelaySampleRfS_ff
 2035              	.LVL108:
  58:MultiFX.cpp   ****             case CRU: GetCrushSample(outl, outr, inl, inr); break;
 2036              		.loc 18 58 61 is_stmt 1 view .LVU535
  64:MultiFX.cpp   **** 
 2037              		.loc 18 64 16 is_stmt 0 view .LVU536
 2038 00b2 DDED027A 		vldr.32	s15, [sp, #8]
  67:MultiFX.cpp   ****     }
 2039              		.loc 18 67 20 view .LVU537
 2040 00b6 9DED030A 		vldr.32	s0, [sp, #12]
  58:MultiFX.cpp   ****             case CRU: GetCrushSample(outl, outr, inl, inr); break;
 2041              		.loc 18 58 61 view .LVU538
 2042 00ba BDE7     		b	.L58
 2043              	.LVL109:
 2044              	.L63:
  57:MultiFX.cpp   ****             case DEL: GetDelaySample(outl, outr, inl, inr); break;
 2045              		.loc 18 57 13 is_stmt 1 view .LVU539
  57:MultiFX.cpp   ****             case DEL: GetDelaySample(outl, outr, inl, inr); break;
 2046              		.loc 18 57 23 view .LVU540
 2047              	.LBB604:
 2048              	.LBI604:
 169:MultiFX.cpp   **** {   
 2049              		.loc 18 169 6 view .LVU541
 2050              	.LBB605:
 172:MultiFX.cpp   ****     filtr.Process(inr);
ARM GAS  C:\Users\Estudi\AppData\Local\Temp\ccjMGKtz.s 			page 62


 2051              		.loc 18 172 5 view .LVU542
 172:MultiFX.cpp   ****     filtr.Process(inr);
 2052              		.loc 18 172 18 is_stmt 0 view .LVU543
 2053 00bc DFF868A0 		ldr	r10, .L65+32
 173:MultiFX.cpp   ****     rev.Process(filtl.High(), filtr.High(), &outl, &outr);
 2054              		.loc 18 173 18 view .LVU544
 2055 00c0 DFF86890 		ldr	r9, .L65+36
 172:MultiFX.cpp   ****     filtr.Process(inr);
 2056              		.loc 18 172 18 view .LVU545
 2057 00c4 5046     		mov	r0, r10
 2058 00c6 FFF7FEFF 		bl	_ZN7daisysp3Svf7ProcessEf
 2059              	.LVL110:
 173:MultiFX.cpp   ****     rev.Process(filtl.High(), filtr.High(), &outl, &outr);
 2060              		.loc 18 173 5 is_stmt 1 view .LVU546
 173:MultiFX.cpp   ****     rev.Process(filtl.High(), filtr.High(), &outl, &outr);
 2061              		.loc 18 173 18 is_stmt 0 view .LVU547
 2062 00ca B0EE480A 		vmov.f32	s0, s16
 2063 00ce 4846     		mov	r0, r9
 2064 00d0 FFF7FEFF 		bl	_ZN7daisysp3Svf7ProcessEf
 2065              	.LVL111:
 174:MultiFX.cpp   ****     // outl = drywet * outl + (1 - drywet) * inl;
 2066              		.loc 18 174 5 is_stmt 1 view .LVU548
 2067              	.LBB606:
 2068              	.LBI606:
 2069              		.loc 14 56 18 view .LVU549
 2070              	.LBB607:
 2071              		.loc 14 56 27 view .LVU550
 2072              		.loc 14 56 27 is_stmt 0 view .LVU551
 2073              	.LBE607:
 2074              	.LBE606:
 174:MultiFX.cpp   ****     // outl = drywet * outl + (1 - drywet) * inl;
 2075              		.loc 18 174 27 view .LVU552
 2076 00d4 DAF83400 		ldr	r0, [r10, #52]	@ float
 174:MultiFX.cpp   ****     // outl = drywet * outl + (1 - drywet) * inl;
 2077              		.loc 18 174 16 view .LVU553
 2078 00d8 03A9     		add	r1, sp, #12
 2079              	.LVL112:
 174:MultiFX.cpp   ****     // outl = drywet * outl + (1 - drywet) * inl;
 2080              		.loc 18 174 41 view .LVU554
 2081 00da D9F834C0 		ldr	ip, [r9, #52]	@ float
 174:MultiFX.cpp   ****     // outl = drywet * outl + (1 - drywet) * inl;
 2082              		.loc 18 174 27 view .LVU555
 2083 00de 0490     		str	r0, [sp, #16]	@ float
 2084              	.LVL113:
 2085              	.LBB608:
 2086              	.LBI608:
 2087              		.loc 14 56 18 is_stmt 1 view .LVU556
 2088              	.LBB609:
 2089              		.loc 14 56 27 view .LVU557
 2090              		.loc 14 56 27 is_stmt 0 view .LVU558
 2091              	.LBE609:
 2092              	.LBE608:
 174:MultiFX.cpp   ****     // outl = drywet * outl + (1 - drywet) * inl;
 2093              		.loc 18 174 16 view .LVU559
 2094 00e0 02AB     		add	r3, sp, #8
 2095              	.LVL114:
 174:MultiFX.cpp   ****     // outl = drywet * outl + (1 - drywet) * inl;
ARM GAS  C:\Users\Estudi\AppData\Local\Temp\ccjMGKtz.s 			page 63


 2096              		.loc 18 174 16 view .LVU560
 2097 00e2 0091     		str	r1, [sp]
 2098 00e4 05AA     		add	r2, sp, #20
 2099 00e6 04A9     		add	r1, sp, #16
 2100              	.LVL115:
 174:MultiFX.cpp   ****     // outl = drywet * outl + (1 - drywet) * inl;
 2101              		.loc 18 174 16 view .LVU561
 2102 00e8 0D48     		ldr	r0, .L65+24
 174:MultiFX.cpp   ****     // outl = drywet * outl + (1 - drywet) * inl;
 2103              		.loc 18 174 41 view .LVU562
 2104 00ea CDF814C0 		str	ip, [sp, #20]	@ float
 174:MultiFX.cpp   ****     // outl = drywet * outl + (1 - drywet) * inl;
 2105              		.loc 18 174 16 view .LVU563
 2106 00ee FFF7FEFF 		bl	_ZN7daisysp8ReverbSc7ProcessERKfS2_PfS3_
 2107              	.LVL116:
 174:MultiFX.cpp   ****     // outl = drywet * outl + (1 - drywet) * inl;
 2108              		.loc 18 174 16 view .LVU564
 2109              	.LBE605:
 2110              	.LBE604:
  64:MultiFX.cpp   **** 
 2111              		.loc 18 64 16 view .LVU565
 2112 00f2 DDED027A 		vldr.32	s15, [sp, #8]
  67:MultiFX.cpp   ****     }
 2113              		.loc 18 67 20 view .LVU566
 2114 00f6 9DED030A 		vldr.32	s0, [sp, #12]
 2115              	.LBB611:
 2116              	.LBB610:
 177:MultiFX.cpp   **** 
 2117              		.loc 18 177 1 view .LVU567
 2118 00fa 9DE7     		b	.L58
 2119              	.LVL117:
 2120              	.L53:
 177:MultiFX.cpp   **** 
 2121              		.loc 18 177 1 view .LVU568
 2122              	.LBE610:
 2123              	.LBE611:
 2124              	.LBE599:
  69:MultiFX.cpp   **** 
 2125              		.loc 18 69 1 view .LVU569
 2126 00fc 06B0     		add	sp, sp, #24
 2127              		.cfi_def_cfa_offset 40
 2128              		@ sp needed
 2129 00fe BDEC028B 		vldm	sp!, {d8}
 2130              		.cfi_restore 80
 2131              		.cfi_restore 81
 2132              		.cfi_def_cfa_offset 32
 2133 0102 BDE8F087 		pop	{r4, r5, r6, r7, r8, r9, r10, pc}
 2134              	.L66:
 2135 0106 00BF     		.align	2
 2136              	.L65:
 2137 0108 00000000 		.word	0
 2138 010c 00000000 		.word	.LANCHOR13
 2139 0110 00000000 		.word	.LANCHOR11
 2140 0114 00000000 		.word	.LANCHOR14
 2141 0118 00000000 		.word	.LANCHOR15
 2142 011c 00000000 		.word	.LANCHOR2
 2143 0120 00000000 		.word	_ZL3rev
ARM GAS  C:\Users\Estudi\AppData\Local\Temp\ccjMGKtz.s 			page 64


 2144 0124 00000000 		.word	.LANCHOR8
 2145 0128 00000000 		.word	.LANCHOR0
 2146 012c 00000000 		.word	.LANCHOR1
 2147              		.cfi_endproc
 2148              	.LFE4795:
 2150              		.section	.text._Z14GetCrushSampleRfS_ff,"ax",%progbits
 2151              		.align	1
 2152              		.p2align 2,,3
 2153              		.global	_Z14GetCrushSampleRfS_ff
 2154              		.syntax unified
 2155              		.thumb
 2156              		.thumb_func
 2157              		.fpu fpv5-d16
 2159              	_Z14GetCrushSampleRfS_ff:
 2160              	.LVL118:
 2161              	.LFB4803:
 195:MultiFX.cpp   ****     crushcount++;
 2162              		.loc 18 195 1 is_stmt 1 view -0
 2163              		.cfi_startproc
 2164              		@ args = 0, pretend = 0, frame = 0
 2165              		@ frame_needed = 0, uses_anonymous_args = 0
 196:MultiFX.cpp   ****     crushcount %= crushmod;
 2166              		.loc 18 196 5 view .LVU571
 197:MultiFX.cpp   ****     if(crushcount == 0)
 2167              		.loc 18 197 5 view .LVU572
 196:MultiFX.cpp   ****     crushcount %= crushmod;
 2168              		.loc 18 196 15 is_stmt 0 view .LVU573
 2169 0000 104A     		ldr	r2, .L70
 195:MultiFX.cpp   ****     crushcount++;
 2170              		.loc 18 195 1 view .LVU574
 2171 0002 70B5     		push	{r4, r5, r6, lr}
 2172              		.cfi_def_cfa_offset 16
 2173              		.cfi_offset 4, -16
 2174              		.cfi_offset 5, -12
 2175              		.cfi_offset 6, -8
 2176              		.cfi_offset 14, -4
 196:MultiFX.cpp   ****     crushcount %= crushmod;
 2177              		.loc 18 196 15 view .LVU575
 2178 0004 1368     		ldr	r3, [r2]
 195:MultiFX.cpp   ****     crushcount++;
 2179              		.loc 18 195 1 view .LVU576
 2180 0006 0546     		mov	r5, r0
 197:MultiFX.cpp   ****     if(crushcount == 0)
 2181              		.loc 18 197 16 view .LVU577
 2182 0008 0F4C     		ldr	r4, .L70+4
 196:MultiFX.cpp   ****     crushcount %= crushmod;
 2183              		.loc 18 196 15 view .LVU578
 2184 000a 0133     		adds	r3, r3, #1
 197:MultiFX.cpp   ****     if(crushcount == 0)
 2185              		.loc 18 197 16 view .LVU579
 2186 000c 2668     		ldr	r6, [r4]
 195:MultiFX.cpp   ****     crushcount++;
 2187              		.loc 18 195 1 view .LVU580
 2188 000e 0C46     		mov	r4, r1
 197:MultiFX.cpp   ****     if(crushcount == 0)
 2189              		.loc 18 197 16 view .LVU581
 2190 0010 93FBF6F1 		sdiv	r1, r3, r6
ARM GAS  C:\Users\Estudi\AppData\Local\Temp\ccjMGKtz.s 			page 65


 2191              	.LVL119:
 197:MultiFX.cpp   ****     if(crushcount == 0)
 2192              		.loc 18 197 16 view .LVU582
 2193 0014 06FB1133 		mls	r3, r6, r1, r3
 2194 0018 1360     		str	r3, [r2]
 198:MultiFX.cpp   ****     {
 2195              		.loc 18 198 5 is_stmt 1 view .LVU583
 2196 001a 2BB9     		cbnz	r3, .L68
 200:MultiFX.cpp   ****         crushsl = inl;
 2197              		.loc 18 200 9 view .LVU584
 200:MultiFX.cpp   ****         crushsl = inl;
 2198              		.loc 18 200 17 is_stmt 0 view .LVU585
 2199 001c 0B4A     		ldr	r2, .L70+8
 201:MultiFX.cpp   ****     }
 2200              		.loc 18 201 17 view .LVU586
 2201 001e 0C4B     		ldr	r3, .L70+12
 200:MultiFX.cpp   ****         crushsl = inl;
 2202              		.loc 18 200 17 view .LVU587
 2203 0020 C2ED000A 		vstr.32	s1, [r2]
 201:MultiFX.cpp   ****     }
 2204              		.loc 18 201 9 is_stmt 1 view .LVU588
 201:MultiFX.cpp   ****     }
 2205              		.loc 18 201 17 is_stmt 0 view .LVU589
 2206 0024 83ED000A 		vstr.32	s0, [r3]
 2207              	.L68:
 203:MultiFX.cpp   ****     outr = tone.Process(crushsr);
 2208              		.loc 18 203 5 is_stmt 1 view .LVU590
 203:MultiFX.cpp   ****     outr = tone.Process(crushsr);
 2209              		.loc 18 203 24 is_stmt 0 view .LVU591
 2210 0028 0949     		ldr	r1, .L70+12
 2211 002a 0A48     		ldr	r0, .L70+16
 2212              	.LVL120:
 203:MultiFX.cpp   ****     outr = tone.Process(crushsr);
 2213              		.loc 18 203 24 view .LVU592
 2214 002c FFF7FEFF 		bl	_ZN7daisysp4Tone7ProcessERf
 2215              	.LVL121:
 204:MultiFX.cpp   **** }
 2216              		.loc 18 204 24 view .LVU593
 2217 0030 0649     		ldr	r1, .L70+8
 2218 0032 0848     		ldr	r0, .L70+16
 203:MultiFX.cpp   ****     outr = tone.Process(crushsr);
 2219              		.loc 18 203 10 view .LVU594
 2220 0034 85ED000A 		vstr.32	s0, [r5]
 204:MultiFX.cpp   **** }
 2221              		.loc 18 204 5 is_stmt 1 view .LVU595
 204:MultiFX.cpp   **** }
 2222              		.loc 18 204 24 is_stmt 0 view .LVU596
 2223 0038 FFF7FEFF 		bl	_ZN7daisysp4Tone7ProcessERf
 2224              	.LVL122:
 204:MultiFX.cpp   **** }
 2225              		.loc 18 204 10 view .LVU597
 2226 003c 84ED000A 		vstr.32	s0, [r4]
 2227              		.loc 18 205 1 view .LVU598
 2228 0040 70BD     		pop	{r4, r5, r6, pc}
 2229              	.LVL123:
 2230              	.L71:
 2231              		.loc 18 205 1 view .LVU599
ARM GAS  C:\Users\Estudi\AppData\Local\Temp\ccjMGKtz.s 			page 66


 2232 0042 00BF     		.align	2
 2233              	.L70:
 2234 0044 00000000 		.word	.LANCHOR13
 2235 0048 00000000 		.word	.LANCHOR11
 2236 004c 00000000 		.word	.LANCHOR14
 2237 0050 00000000 		.word	.LANCHOR15
 2238 0054 00000000 		.word	.LANCHOR2
 2239              		.cfi_endproc
 2240              	.LFE4803:
 2242              		.section	.text.startup._GLOBAL__sub_I_mode,"ax",%progbits
 2243              		.align	1
 2244              		.p2align 2,,3
 2245              		.syntax unified
 2246              		.thumb
 2247              		.thumb_func
 2248              		.fpu fpv5-d16
 2250              	_GLOBAL__sub_I_mode:
 2251              	.LFB5386:
 2252              		.loc 18 205 1 is_stmt 1 view -0
 2253              		.cfi_startproc
 2254              		@ args = 0, pretend = 0, frame = 0
 2255              		@ frame_needed = 0, uses_anonymous_args = 0
 2256              	.LBB701:
 2257              	.LBI701:
 2258              		.loc 18 205 1 view .LVU601
 2259              	.LVL124:
 2260              	.LBB702:
 2261              	.LBB703:
 2262              	.LBI703:
  35:../../DaisyExamples/libDaisy//src/daisy_pod.h ****     ~DaisyPod() {}
 2263              		.loc 3 35 5 view .LVU602
 2264              	.LBB704:
 2265              	.LBB705:
 2266              	.LBI705:
  21:../../DaisyExamples/libDaisy//src/daisy_seed.h ****     ~DaisySeed() {}
 2267              		.loc 9 21 5 view .LVU603
 2268              	.LBB706:
 2269              	.LBB707:
 2270              	.LBI707:
 2271              		.file 20 "../../DaisyExamples/libDaisy//src/per/qspi.h"
   1:../../DaisyExamples/libDaisy//src/per/qspi.h **** #ifndef DSY_QSPI
   2:../../DaisyExamples/libDaisy//src/per/qspi.h **** #define DSY_QSPI /**< Macro */
   3:../../DaisyExamples/libDaisy//src/per/qspi.h **** 
   4:../../DaisyExamples/libDaisy//src/per/qspi.h **** #ifndef UNIT_TEST // for unit tests, a dummy implementation
   5:../../DaisyExamples/libDaisy//src/per/qspi.h **** 
   6:../../DaisyExamples/libDaisy//src/per/qspi.h **** #include <cstdint>
   7:../../DaisyExamples/libDaisy//src/per/qspi.h **** #include "daisy_core.h" // Added for dsy_gpio_pin typedef
   8:../../DaisyExamples/libDaisy//src/per/qspi.h **** 
   9:../../DaisyExamples/libDaisy//src/per/qspi.h **** #define DSY_QSPI_TEXT       \
  10:../../DaisyExamples/libDaisy//src/per/qspi.h ****     __attribute__((section( \
  11:../../DaisyExamples/libDaisy//src/per/qspi.h ****         ".qspiflash_text"))) /**< used for reading memory in memory_mapped mode. */
  12:../../DaisyExamples/libDaisy//src/per/qspi.h **** #define DSY_QSPI_DATA       \
  13:../../DaisyExamples/libDaisy//src/per/qspi.h ****     __attribute__((section( \
  14:../../DaisyExamples/libDaisy//src/per/qspi.h ****         ".qspiflash_data"))) /**< used for reading memory in memory_mapped mode. */
  15:../../DaisyExamples/libDaisy//src/per/qspi.h **** #define DSY_QSPI_BSS        \
  16:../../DaisyExamples/libDaisy//src/per/qspi.h ****     __attribute__((section( \
  17:../../DaisyExamples/libDaisy//src/per/qspi.h ****         ".qspiflash_bss"))) /**< used for reading memory in memory_mapped mode. */
ARM GAS  C:\Users\Estudi\AppData\Local\Temp\ccjMGKtz.s 			page 67


  18:../../DaisyExamples/libDaisy//src/per/qspi.h **** 
  19:../../DaisyExamples/libDaisy//src/per/qspi.h **** namespace daisy
  20:../../DaisyExamples/libDaisy//src/per/qspi.h **** {
  21:../../DaisyExamples/libDaisy//src/per/qspi.h **** /** @addtogroup serial
  22:../../DaisyExamples/libDaisy//src/per/qspi.h **** @{
  23:../../DaisyExamples/libDaisy//src/per/qspi.h **** */
  24:../../DaisyExamples/libDaisy//src/per/qspi.h **** 
  25:../../DaisyExamples/libDaisy//src/per/qspi.h **** /** 
  26:../../DaisyExamples/libDaisy//src/per/qspi.h ****  Driver for QSPI peripheral to interface with external flash memory. \n 
  27:../../DaisyExamples/libDaisy//src/per/qspi.h ****     Currently supported QSPI Devices: \n 
  28:../../DaisyExamples/libDaisy//src/per/qspi.h ****     * IS25LP080D
  29:../../DaisyExamples/libDaisy//src/per/qspi.h **** */
  30:../../DaisyExamples/libDaisy//src/per/qspi.h **** class QSPIHandle
  31:../../DaisyExamples/libDaisy//src/per/qspi.h **** {
  32:../../DaisyExamples/libDaisy//src/per/qspi.h ****   public:
  33:../../DaisyExamples/libDaisy//src/per/qspi.h ****     enum Result
  34:../../DaisyExamples/libDaisy//src/per/qspi.h ****     {
  35:../../DaisyExamples/libDaisy//src/per/qspi.h ****         OK = 0,
  36:../../DaisyExamples/libDaisy//src/per/qspi.h ****         ERR
  37:../../DaisyExamples/libDaisy//src/per/qspi.h ****     };
  38:../../DaisyExamples/libDaisy//src/per/qspi.h **** 
  39:../../DaisyExamples/libDaisy//src/per/qspi.h ****     /** Indicates the current status of the module. 
  40:../../DaisyExamples/libDaisy//src/per/qspi.h ****          *  Warnings are indicated by a leading W.
  41:../../DaisyExamples/libDaisy//src/per/qspi.h ****          *  Errors are indicated by a leading E and cause an immediate exit.
  42:../../DaisyExamples/libDaisy//src/per/qspi.h ****          * 
  43:../../DaisyExamples/libDaisy//src/per/qspi.h ****          *  \param GOOD - No errors have been reported.
  44:../../DaisyExamples/libDaisy//src/per/qspi.h ****          *  \param E_HAL_ERROR - HAL code did not return HAL_OK.
  45:../../DaisyExamples/libDaisy//src/per/qspi.h ****          *  \param E_SWITCHING_MODES - An error was encountered while switching QSPI peripheral mod
  46:../../DaisyExamples/libDaisy//src/per/qspi.h ****          *  \param E_INVALID_MODE - QSPI should not be written to while the program is executing fr
  47:../../DaisyExamples/libDaisy//src/per/qspi.h ****          */
  48:../../DaisyExamples/libDaisy//src/per/qspi.h ****     enum Status
  49:../../DaisyExamples/libDaisy//src/per/qspi.h ****     {
  50:../../DaisyExamples/libDaisy//src/per/qspi.h ****         GOOD = 0,
  51:../../DaisyExamples/libDaisy//src/per/qspi.h ****         E_HAL_ERROR,
  52:../../DaisyExamples/libDaisy//src/per/qspi.h ****         E_SWITCHING_MODES,
  53:../../DaisyExamples/libDaisy//src/per/qspi.h ****         E_INVALID_MODE,
  54:../../DaisyExamples/libDaisy//src/per/qspi.h ****     };
  55:../../DaisyExamples/libDaisy//src/per/qspi.h **** 
  56:../../DaisyExamples/libDaisy//src/per/qspi.h ****     /** Configuration structure for interfacing with QSPI Driver */
  57:../../DaisyExamples/libDaisy//src/per/qspi.h ****     struct Config
  58:../../DaisyExamples/libDaisy//src/per/qspi.h ****     {
  59:../../DaisyExamples/libDaisy//src/per/qspi.h ****         /** Flash Devices supported. (Both of these are more-or-less the same, just different sizes
  60:../../DaisyExamples/libDaisy//src/per/qspi.h ****         enum Device
  61:../../DaisyExamples/libDaisy//src/per/qspi.h ****         {
  62:../../DaisyExamples/libDaisy//src/per/qspi.h ****             IS25LP080D,  /**< & */
  63:../../DaisyExamples/libDaisy//src/per/qspi.h ****             IS25LP064A,  /**< & */
  64:../../DaisyExamples/libDaisy//src/per/qspi.h ****             DEVICE_LAST, /**< & */
  65:../../DaisyExamples/libDaisy//src/per/qspi.h ****         };
  66:../../DaisyExamples/libDaisy//src/per/qspi.h **** 
  67:../../DaisyExamples/libDaisy//src/per/qspi.h ****         /** 
  68:../../DaisyExamples/libDaisy//src/per/qspi.h ****         Modes of operation.
  69:../../DaisyExamples/libDaisy//src/per/qspi.h ****         Memory Mapped mode: QSPI configured so that the QSPI can be
  70:../../DaisyExamples/libDaisy//src/per/qspi.h ****         read from starting address 0x90000000. Writing is not
  71:../../DaisyExamples/libDaisy//src/per/qspi.h ****         possible in this mode. \n 
  72:../../DaisyExamples/libDaisy//src/per/qspi.h ****         Indirect Polling mode: Device driver enabled. 
  73:../../DaisyExamples/libDaisy//src/per/qspi.h ****         */
  74:../../DaisyExamples/libDaisy//src/per/qspi.h ****         enum Mode
ARM GAS  C:\Users\Estudi\AppData\Local\Temp\ccjMGKtz.s 			page 68


  75:../../DaisyExamples/libDaisy//src/per/qspi.h ****         {
  76:../../DaisyExamples/libDaisy//src/per/qspi.h ****             MEMORY_MAPPED,    /**< & */
  77:../../DaisyExamples/libDaisy//src/per/qspi.h ****             INDIRECT_POLLING, /**< & */
  78:../../DaisyExamples/libDaisy//src/per/qspi.h ****             MODE_LAST,
  79:../../DaisyExamples/libDaisy//src/per/qspi.h ****         };
  80:../../DaisyExamples/libDaisy//src/per/qspi.h **** 
  81:../../DaisyExamples/libDaisy//src/per/qspi.h ****         //SCK,  CE# (active low)
  82:../../DaisyExamples/libDaisy//src/per/qspi.h ****         struct
  83:../../DaisyExamples/libDaisy//src/per/qspi.h ****         {
  84:../../DaisyExamples/libDaisy//src/per/qspi.h ****             dsy_gpio_pin io0; /**< & */
  85:../../DaisyExamples/libDaisy//src/per/qspi.h ****             dsy_gpio_pin io1; /**< & */
  86:../../DaisyExamples/libDaisy//src/per/qspi.h ****             dsy_gpio_pin io2; /**< & */
  87:../../DaisyExamples/libDaisy//src/per/qspi.h ****             dsy_gpio_pin io3; /**< & */
  88:../../DaisyExamples/libDaisy//src/per/qspi.h ****             dsy_gpio_pin clk; /**< & */
  89:../../DaisyExamples/libDaisy//src/per/qspi.h ****             dsy_gpio_pin ncs; /**< & */
  90:../../DaisyExamples/libDaisy//src/per/qspi.h ****         } pin_config;
  91:../../DaisyExamples/libDaisy//src/per/qspi.h **** 
  92:../../DaisyExamples/libDaisy//src/per/qspi.h ****         Device device;
  93:../../DaisyExamples/libDaisy//src/per/qspi.h ****         Mode   mode;
  94:../../DaisyExamples/libDaisy//src/per/qspi.h ****     };
  95:../../DaisyExamples/libDaisy//src/per/qspi.h **** 
  96:../../DaisyExamples/libDaisy//src/per/qspi.h ****     /** 
  97:../../DaisyExamples/libDaisy//src/per/qspi.h ****         Initializes QSPI peripheral, and Resets, and prepares memory for access.
  98:../../DaisyExamples/libDaisy//src/per/qspi.h ****         \param config should be populated with the mode, device and pin_config before calling this 
  99:../../DaisyExamples/libDaisy//src/per/qspi.h ****         \return Result::OK or Result::ERR
 100:../../DaisyExamples/libDaisy//src/per/qspi.h ****         */
 101:../../DaisyExamples/libDaisy//src/per/qspi.h ****     Result Init(const Config& config);
 102:../../DaisyExamples/libDaisy//src/per/qspi.h **** 
 103:../../DaisyExamples/libDaisy//src/per/qspi.h ****     /** Returns the current config. */
 104:../../DaisyExamples/libDaisy//src/per/qspi.h ****     const Config& GetConfig() const;
 105:../../DaisyExamples/libDaisy//src/per/qspi.h **** 
 106:../../DaisyExamples/libDaisy//src/per/qspi.h ****     // Couldn't this just be called before anything else in init? That
 107:../../DaisyExamples/libDaisy//src/per/qspi.h ****     // would make manually calling it unnecessary.
 108:../../DaisyExamples/libDaisy//src/per/qspi.h ****     /** 
 109:../../DaisyExamples/libDaisy//src/per/qspi.h ****         Deinitializes the peripheral
 110:../../DaisyExamples/libDaisy//src/per/qspi.h ****         This should be called before reinitializing QSPI in a different mode.
 111:../../DaisyExamples/libDaisy//src/per/qspi.h ****         \return Result::OK or Result::ERR
 112:../../DaisyExamples/libDaisy//src/per/qspi.h ****         */
 113:../../DaisyExamples/libDaisy//src/per/qspi.h ****     Result DeInit();
 114:../../DaisyExamples/libDaisy//src/per/qspi.h **** 
 115:../../DaisyExamples/libDaisy//src/per/qspi.h ****     /** 
 116:../../DaisyExamples/libDaisy//src/per/qspi.h ****         Writes a single page to to the specified address on the QSPI chip.
 117:../../DaisyExamples/libDaisy//src/per/qspi.h ****         For IS25LP*, page size is 256 bytes.
 118:../../DaisyExamples/libDaisy//src/per/qspi.h ****         \param address Address to write to
 119:../../DaisyExamples/libDaisy//src/per/qspi.h ****         \param size Buffer size
 120:../../DaisyExamples/libDaisy//src/per/qspi.h ****         \param buffer Buffer to write
 121:../../DaisyExamples/libDaisy//src/per/qspi.h ****         \return Result::OK or Result::ERR
 122:../../DaisyExamples/libDaisy//src/per/qspi.h ****         */
 123:../../DaisyExamples/libDaisy//src/per/qspi.h ****     Result WritePage(uint32_t address, uint32_t size, uint8_t* buffer);
 124:../../DaisyExamples/libDaisy//src/per/qspi.h **** 
 125:../../DaisyExamples/libDaisy//src/per/qspi.h ****     /** 
 126:../../DaisyExamples/libDaisy//src/per/qspi.h ****         Writes data in buffer to to the QSPI. Starting at address to address+size 
 127:../../DaisyExamples/libDaisy//src/per/qspi.h ****         \param address Address to write to
 128:../../DaisyExamples/libDaisy//src/per/qspi.h ****         \param size Buffer size
 129:../../DaisyExamples/libDaisy//src/per/qspi.h ****         \param buffer Buffer to write
 130:../../DaisyExamples/libDaisy//src/per/qspi.h ****         \return Result::OK or Result::ERR
 131:../../DaisyExamples/libDaisy//src/per/qspi.h ****         */
ARM GAS  C:\Users\Estudi\AppData\Local\Temp\ccjMGKtz.s 			page 69


 132:../../DaisyExamples/libDaisy//src/per/qspi.h ****     Result Write(uint32_t address, uint32_t size, uint8_t* buffer);
 133:../../DaisyExamples/libDaisy//src/per/qspi.h **** 
 134:../../DaisyExamples/libDaisy//src/per/qspi.h ****     /** 
 135:../../DaisyExamples/libDaisy//src/per/qspi.h ****         Erases the area specified on the chip.
 136:../../DaisyExamples/libDaisy//src/per/qspi.h ****         Erasures will happen by 4K, 32K or 64K increments.
 137:../../DaisyExamples/libDaisy//src/per/qspi.h ****         Smallest erase possible is 4kB at a time. (on IS25LP*)
 138:../../DaisyExamples/libDaisy//src/per/qspi.h ****         \param start_addr Address to begin erasing from
 139:../../DaisyExamples/libDaisy//src/per/qspi.h ****         \param end_addr  Address to stop erasing at
 140:../../DaisyExamples/libDaisy//src/per/qspi.h ****         \return Result::OK or Result::ERR
 141:../../DaisyExamples/libDaisy//src/per/qspi.h ****         */
 142:../../DaisyExamples/libDaisy//src/per/qspi.h ****     Result Erase(uint32_t start_addr, uint32_t end_addr);
 143:../../DaisyExamples/libDaisy//src/per/qspi.h **** 
 144:../../DaisyExamples/libDaisy//src/per/qspi.h ****     /**  
 145:../../DaisyExamples/libDaisy//src/per/qspi.h ****          Erases a single sector of the chip.  
 146:../../DaisyExamples/libDaisy//src/per/qspi.h ****         TODO: Document the size of this function. 
 147:../../DaisyExamples/libDaisy//src/per/qspi.h ****         \param address Address of sector to erase
 148:../../DaisyExamples/libDaisy//src/per/qspi.h ****         \return Result::OK or Result::ERR
 149:../../DaisyExamples/libDaisy//src/per/qspi.h ****         */
 150:../../DaisyExamples/libDaisy//src/per/qspi.h ****     Result EraseSector(uint32_t address);
 151:../../DaisyExamples/libDaisy//src/per/qspi.h **** 
 152:../../DaisyExamples/libDaisy//src/per/qspi.h ****     /** Returns the current class status. Useful for debugging.
 153:../../DaisyExamples/libDaisy//src/per/qspi.h ****      *  \returns Status
 154:../../DaisyExamples/libDaisy//src/per/qspi.h ****      */
 155:../../DaisyExamples/libDaisy//src/per/qspi.h ****     Status GetStatus();
 156:../../DaisyExamples/libDaisy//src/per/qspi.h **** 
 157:../../DaisyExamples/libDaisy//src/per/qspi.h ****     /** Returns a pointer to the actual memory used 
 158:../../DaisyExamples/libDaisy//src/per/qspi.h ****      *  The memory at this address is read-only
 159:../../DaisyExamples/libDaisy//src/per/qspi.h ****      *  to write to it use the Write function.
 160:../../DaisyExamples/libDaisy//src/per/qspi.h ****      * 
 161:../../DaisyExamples/libDaisy//src/per/qspi.h ****      *  \param offset returns the pointer starting this 
 162:../../DaisyExamples/libDaisy//src/per/qspi.h ****      *                many bytes into the memory
 163:../../DaisyExamples/libDaisy//src/per/qspi.h ****     */
 164:../../DaisyExamples/libDaisy//src/per/qspi.h ****     void* GetData(uint32_t offset = 0);
 165:../../DaisyExamples/libDaisy//src/per/qspi.h **** 
 166:../../DaisyExamples/libDaisy//src/per/qspi.h ****     QSPIHandle() : pimpl_(nullptr) {}
 2272              		.loc 20 166 5 view .LVU604
 2273              	.LBB708:
 2274              	.LBB709:
 2275              		.loc 20 166 34 is_stmt 0 view .LVU605
 2276 0000 2A48     		ldr	r0, .L74
 2277 0002 0022     		movs	r2, #0
 2278              	.LBE709:
 2279              	.LBE708:
 2280              	.LBE707:
 2281              	.LBE706:
 2282              	.LBE705:
 2283              	.LBB725:
 2284              	.LBB726:
 2285              	.LBB727:
 2286              	.LBB728:
 2287              	.LBB729:
 2288              	.LBB730:
 2289              	.LBB731:
  37:../../DaisyExamples/libDaisy//src/hid/midi.h ****             tx     = {DSY_GPIOB, 6};
 2290              		.loc 4 37 20 view .LVU606
 2291 0004 2A49     		ldr	r1, .L74+4
 2292              	.LBE731:
ARM GAS  C:\Users\Estudi\AppData\Local\Temp\ccjMGKtz.s 			page 70


 2293              	.LBE730:
 2294              	.LBE729:
 2295              	.LBE728:
 2296              	.LBE727:
 2297              	.LBE726:
 2298              	.LBE725:
 2299              	.LBE704:
 2300              	.LBE703:
 2301              	.LBE702:
 2302              	.LBE701:
 2303              		.loc 18 205 1 view .LVU607
 2304 0006 38B5     		push	{r3, r4, r5, lr}
 2305              		.cfi_def_cfa_offset 16
 2306              		.cfi_offset 3, -16
 2307              		.cfi_offset 4, -12
 2308              		.cfi_offset 5, -8
 2309              		.cfi_offset 14, -4
 2310              	.LBB828:
 2311              	.LBB826:
 2312              	.LBB807:
 2313              	.LBB803:
 2314              	.LBB778:
 2315              	.LBB772:
 2316              	.LBB766:
 2317              	.LBB750:
 2318              	.LBB744:
 2319              	.LBB738:
 2320              	.LBB732:
  36:../../DaisyExamples/libDaisy//src/hid/midi.h ****             rx     = {DSY_GPIOB, 7};
 2321              		.loc 4 36 20 view .LVU608
 2322 0008 00F51043 		add	r3, r0, #36864
 2323              	.LBE732:
 2324              	.LBE738:
 2325              	.LBE744:
 2326              	.LBE750:
 2327              	.LBE766:
 2328              	.LBE772:
 2329              	.LBE778:
 2330              	.LBB779:
 2331              	.LBB723:
 2332              	.LBB712:
 2333              	.LBB711:
 2334              	.LBB710:
 2335              		.loc 20 166 34 view .LVU609
 2336 000c 0260     		str	r2, [r0]
 2337              	.LVL125:
 2338              		.loc 20 166 34 view .LVU610
 2339              	.LBE710:
 2340              	.LBE711:
 2341              	.LBE712:
 2342              	.LBB713:
 2343              	.LBI713:
  95:../../DaisyExamples/libDaisy//src/hid/audio.h ****     ~AudioHandle() {}
 2344              		.loc 13 95 5 is_stmt 1 view .LVU611
 2345              	.LBB714:
 2346              	.LBB715:
  95:../../DaisyExamples/libDaisy//src/hid/audio.h ****     ~AudioHandle() {}
ARM GAS  C:\Users\Estudi\AppData\Local\Temp\ccjMGKtz.s 			page 71


 2347              		.loc 13 95 35 is_stmt 0 view .LVU612
 2348 000e 4261     		str	r2, [r0, #20]
 2349              	.LVL126:
  95:../../DaisyExamples/libDaisy//src/hid/audio.h ****     ~AudioHandle() {}
 2350              		.loc 13 95 35 view .LVU613
 2351              	.LBE715:
 2352              	.LBE714:
 2353              	.LBE713:
 2354              	.LBB716:
 2355              	.LBI716:
  92:../../DaisyExamples/libDaisy//src/per/adc.h ****     ~AdcHandle() {}
 2356              		.loc 12 92 5 is_stmt 1 view .LVU614
  92:../../DaisyExamples/libDaisy//src/per/adc.h ****     ~AdcHandle() {}
 2357              		.loc 12 92 5 is_stmt 0 view .LVU615
 2358              	.LBE716:
 2359              	.LBB717:
 2360              	.LBI717:
 2361              		.file 21 "../../DaisyExamples/libDaisy//src/per/dac.h"
   1:../../DaisyExamples/libDaisy//src/per/dac.h **** #pragma once
   2:../../DaisyExamples/libDaisy//src/per/dac.h **** #ifndef DSY_DAC_H
   3:../../DaisyExamples/libDaisy//src/per/dac.h **** #define DSY_DAC_H
   4:../../DaisyExamples/libDaisy//src/per/dac.h **** 
   5:../../DaisyExamples/libDaisy//src/per/dac.h **** #include "daisy_core.h"
   6:../../DaisyExamples/libDaisy//src/per/dac.h **** 
   7:../../DaisyExamples/libDaisy//src/per/dac.h **** namespace daisy
   8:../../DaisyExamples/libDaisy//src/per/dac.h **** {
   9:../../DaisyExamples/libDaisy//src/per/dac.h **** /** @brief DAC handle for Built-in DAC Peripheral 
  10:../../DaisyExamples/libDaisy//src/per/dac.h ****  *  @ingroup per_analog
  11:../../DaisyExamples/libDaisy//src/per/dac.h ****  ** 
  12:../../DaisyExamples/libDaisy//src/per/dac.h ****  ** For now only Normal Mode is supported,
  13:../../DaisyExamples/libDaisy//src/per/dac.h ****  ** Sample and hold mode provides reduced power consumption, but requires a bit more setup.
  14:../../DaisyExamples/libDaisy//src/per/dac.h ****  **
  15:../../DaisyExamples/libDaisy//src/per/dac.h ****  ** For now connecting the DAC through other internal peripherals is also not supported.
  16:../../DaisyExamples/libDaisy//src/per/dac.h ****  **
  17:../../DaisyExamples/libDaisy//src/per/dac.h ****  ** Since the DAC channels have dedicated pins we don't need to pass in a pin config like with
  18:../../DaisyExamples/libDaisy//src/per/dac.h ****  ** other modules. However, it is still important to not try to use the DAC pins for anything else.
  19:../../DaisyExamples/libDaisy//src/per/dac.h ****  ** DAC Channel 1 is on PA4, and DAC Channel 2 is on PA5
  20:../../DaisyExamples/libDaisy//src/per/dac.h ****  ***/
  21:../../DaisyExamples/libDaisy//src/per/dac.h **** class DacHandle
  22:../../DaisyExamples/libDaisy//src/per/dac.h **** {
  23:../../DaisyExamples/libDaisy//src/per/dac.h ****   public:
  24:../../DaisyExamples/libDaisy//src/per/dac.h ****     /** Return Values for the DacHandle class */
  25:../../DaisyExamples/libDaisy//src/per/dac.h ****     enum class Result
  26:../../DaisyExamples/libDaisy//src/per/dac.h ****     {
  27:../../DaisyExamples/libDaisy//src/per/dac.h ****         OK,
  28:../../DaisyExamples/libDaisy//src/per/dac.h ****         ERR,
  29:../../DaisyExamples/libDaisy//src/per/dac.h ****     };
  30:../../DaisyExamples/libDaisy//src/per/dac.h **** 
  31:../../DaisyExamples/libDaisy//src/per/dac.h ****     /** Selects which channel(s) will be configured for use. */
  32:../../DaisyExamples/libDaisy//src/per/dac.h ****     enum class Channel
  33:../../DaisyExamples/libDaisy//src/per/dac.h ****     {
  34:../../DaisyExamples/libDaisy//src/per/dac.h ****         ONE,
  35:../../DaisyExamples/libDaisy//src/per/dac.h ****         TWO,
  36:../../DaisyExamples/libDaisy//src/per/dac.h ****         BOTH,
  37:../../DaisyExamples/libDaisy//src/per/dac.h ****     };
  38:../../DaisyExamples/libDaisy//src/per/dac.h **** 
  39:../../DaisyExamples/libDaisy//src/per/dac.h ****     /** Sets the Mode for the DAC channels.
ARM GAS  C:\Users\Estudi\AppData\Local\Temp\ccjMGKtz.s 			page 72


  40:../../DaisyExamples/libDaisy//src/per/dac.h ****      **
  41:../../DaisyExamples/libDaisy//src/per/dac.h ****      ** Polling mode uses the blocking mode to transmit a single value at a time.
  42:../../DaisyExamples/libDaisy//src/per/dac.h ****      **
  43:../../DaisyExamples/libDaisy//src/per/dac.h ****      ** DMA mode uses a buffer, and periodically transmits it triggering a 
  44:../../DaisyExamples/libDaisy//src/per/dac.h ****      ** callback to fill the buffer when it is ready for more samples.
  45:../../DaisyExamples/libDaisy//src/per/dac.h ****      ***/
  46:../../DaisyExamples/libDaisy//src/per/dac.h ****     enum class Mode
  47:../../DaisyExamples/libDaisy//src/per/dac.h ****     {
  48:../../DaisyExamples/libDaisy//src/per/dac.h ****         POLLING,
  49:../../DaisyExamples/libDaisy//src/per/dac.h ****         DMA,
  50:../../DaisyExamples/libDaisy//src/per/dac.h ****     };
  51:../../DaisyExamples/libDaisy//src/per/dac.h **** 
  52:../../DaisyExamples/libDaisy//src/per/dac.h ****     /** Sets the number of bits per sample transmitted out of the DAC.
  53:../../DaisyExamples/libDaisy//src/per/dac.h ****      ** The output range will be: 0V - VDDA
  54:../../DaisyExamples/libDaisy//src/per/dac.h ****      ** The resolution will be roughly: bitdepth / (VDDA - 0V) 
  55:../../DaisyExamples/libDaisy//src/per/dac.h ****      ***/
  56:../../DaisyExamples/libDaisy//src/per/dac.h ****     enum class BitDepth
  57:../../DaisyExamples/libDaisy//src/per/dac.h ****     {
  58:../../DaisyExamples/libDaisy//src/per/dac.h ****         BITS_8,
  59:../../DaisyExamples/libDaisy//src/per/dac.h ****         BITS_12
  60:../../DaisyExamples/libDaisy//src/per/dac.h ****     };
  61:../../DaisyExamples/libDaisy//src/per/dac.h **** 
  62:../../DaisyExamples/libDaisy//src/per/dac.h ****     /** Sets whether the DAC output is buffered for higher drive ability. */
  63:../../DaisyExamples/libDaisy//src/per/dac.h ****     enum class BufferState
  64:../../DaisyExamples/libDaisy//src/per/dac.h ****     {
  65:../../DaisyExamples/libDaisy//src/per/dac.h ****         ENABLED,
  66:../../DaisyExamples/libDaisy//src/per/dac.h ****         DISABLED,
  67:../../DaisyExamples/libDaisy//src/per/dac.h ****     };
  68:../../DaisyExamples/libDaisy//src/per/dac.h **** 
  69:../../DaisyExamples/libDaisy//src/per/dac.h ****     /** Configuration structure for initializing the DAC structure. */
  70:../../DaisyExamples/libDaisy//src/per/dac.h ****     struct Config
  71:../../DaisyExamples/libDaisy//src/per/dac.h ****     {
  72:../../DaisyExamples/libDaisy//src/per/dac.h ****         /** Target Samplerate in Hz used to configure the internal 
  73:../../DaisyExamples/libDaisy//src/per/dac.h ****          ** timebase for DMA mode. Does nothing in POLLING mode.
  74:../../DaisyExamples/libDaisy//src/per/dac.h ****          ** If the value is 0 at Init time this will default to 48000Hz 
  75:../../DaisyExamples/libDaisy//src/per/dac.h ****          ** otherwise the driver will attempt meet the target.*/
  76:../../DaisyExamples/libDaisy//src/per/dac.h ****         uint32_t target_samplerate;
  77:../../DaisyExamples/libDaisy//src/per/dac.h **** 
  78:../../DaisyExamples/libDaisy//src/per/dac.h ****         Channel     chn;
  79:../../DaisyExamples/libDaisy//src/per/dac.h ****         Mode        mode;
  80:../../DaisyExamples/libDaisy//src/per/dac.h ****         BitDepth    bitdepth;
  81:../../DaisyExamples/libDaisy//src/per/dac.h ****         BufferState buff_state;
  82:../../DaisyExamples/libDaisy//src/per/dac.h ****     };
  83:../../DaisyExamples/libDaisy//src/per/dac.h **** 
  84:../../DaisyExamples/libDaisy//src/per/dac.h ****     DacHandle() : pimpl_(nullptr) {}
 2362              		.loc 21 84 5 is_stmt 1 view .LVU616
 2363              	.LBE717:
 2364              	.LBE723:
 2365              	.LBE779:
 2366              	.LBB780:
 2367              	.LBB773:
 2368              	.LBB767:
 2369              	.LBB751:
 2370              	.LBB745:
 2371              	.LBB739:
 2372              	.LBB733:
  36:../../DaisyExamples/libDaisy//src/hid/midi.h ****             rx     = {DSY_GPIOB, 7};
ARM GAS  C:\Users\Estudi\AppData\Local\Temp\ccjMGKtz.s 			page 73


 2373              		.loc 4 36 20 is_stmt 0 view .LVU617
 2374 0010 C3F82422 		str	r2, [r3, #548]
 2375              	.LBE733:
 2376              	.LBE739:
 2377              	.LBE745:
 2378              	.LBE751:
 2379              	.LBB752:
 2380              	.LBB753:
 2381              	.LBB754:
 2382              	.LBB755:
 2383              		.file 22 "../../DaisyExamples/libDaisy//src/per/uart.h"
   1:../../DaisyExamples/libDaisy//src/per/uart.h **** /* 
   2:../../DaisyExamples/libDaisy//src/per/uart.h **** TODO
   3:../../DaisyExamples/libDaisy//src/per/uart.h **** - UART1 defaults to DMA, add flexible config for DMA on all periphs
   4:../../DaisyExamples/libDaisy//src/per/uart.h **** - Transmit function improvements.
   5:../../DaisyExamples/libDaisy//src/per/uart.h **** - Overflow handling, etc. for Rx Queue.
   6:../../DaisyExamples/libDaisy//src/per/uart.h **** */
   7:../../DaisyExamples/libDaisy//src/per/uart.h **** 
   8:../../DaisyExamples/libDaisy//src/per/uart.h **** #pragma once
   9:../../DaisyExamples/libDaisy//src/per/uart.h **** #ifndef DSY_UART_H
  10:../../DaisyExamples/libDaisy//src/per/uart.h **** #define DSY_UART_H /**< macro */
  11:../../DaisyExamples/libDaisy//src/per/uart.h **** #include "daisy_core.h"
  12:../../DaisyExamples/libDaisy//src/per/uart.h **** 
  13:../../DaisyExamples/libDaisy//src/per/uart.h **** 
  14:../../DaisyExamples/libDaisy//src/per/uart.h **** namespace daisy
  15:../../DaisyExamples/libDaisy//src/per/uart.h **** {
  16:../../DaisyExamples/libDaisy//src/per/uart.h **** /** @addtogroup serial
  17:../../DaisyExamples/libDaisy//src/per/uart.h ****     @{
  18:../../DaisyExamples/libDaisy//src/per/uart.h ****     */
  19:../../DaisyExamples/libDaisy//src/per/uart.h **** 
  20:../../DaisyExamples/libDaisy//src/per/uart.h **** /** 
  21:../../DaisyExamples/libDaisy//src/per/uart.h ****     Uart Peripheral
  22:../../DaisyExamples/libDaisy//src/per/uart.h ****     @author shensley
  23:../../DaisyExamples/libDaisy//src/per/uart.h ****     @date March 2020
  24:../../DaisyExamples/libDaisy//src/per/uart.h ****     */
  25:../../DaisyExamples/libDaisy//src/per/uart.h **** class UartHandler
  26:../../DaisyExamples/libDaisy//src/per/uart.h **** {
  27:../../DaisyExamples/libDaisy//src/per/uart.h ****   public:
  28:../../DaisyExamples/libDaisy//src/per/uart.h ****     struct Config
  29:../../DaisyExamples/libDaisy//src/per/uart.h ****     {
  30:../../DaisyExamples/libDaisy//src/per/uart.h ****         enum class Peripheral
  31:../../DaisyExamples/libDaisy//src/per/uart.h ****         {
  32:../../DaisyExamples/libDaisy//src/per/uart.h ****             USART_1,
  33:../../DaisyExamples/libDaisy//src/per/uart.h ****             USART_2,
  34:../../DaisyExamples/libDaisy//src/per/uart.h ****             USART_3,
  35:../../DaisyExamples/libDaisy//src/per/uart.h ****             UART_4,
  36:../../DaisyExamples/libDaisy//src/per/uart.h ****             UART_5,
  37:../../DaisyExamples/libDaisy//src/per/uart.h ****             USART_6,
  38:../../DaisyExamples/libDaisy//src/per/uart.h ****             UART_7,
  39:../../DaisyExamples/libDaisy//src/per/uart.h ****             UART_8,
  40:../../DaisyExamples/libDaisy//src/per/uart.h ****             LPUART_1,
  41:../../DaisyExamples/libDaisy//src/per/uart.h ****         };
  42:../../DaisyExamples/libDaisy//src/per/uart.h **** 
  43:../../DaisyExamples/libDaisy//src/per/uart.h ****         enum class StopBits
  44:../../DaisyExamples/libDaisy//src/per/uart.h ****         {
  45:../../DaisyExamples/libDaisy//src/per/uart.h ****             BITS_0_5,
  46:../../DaisyExamples/libDaisy//src/per/uart.h ****             BITS_1,
ARM GAS  C:\Users\Estudi\AppData\Local\Temp\ccjMGKtz.s 			page 74


  47:../../DaisyExamples/libDaisy//src/per/uart.h ****             BITS_1_5,
  48:../../DaisyExamples/libDaisy//src/per/uart.h ****             BITS_2,
  49:../../DaisyExamples/libDaisy//src/per/uart.h ****         };
  50:../../DaisyExamples/libDaisy//src/per/uart.h **** 
  51:../../DaisyExamples/libDaisy//src/per/uart.h ****         enum class Parity
  52:../../DaisyExamples/libDaisy//src/per/uart.h ****         {
  53:../../DaisyExamples/libDaisy//src/per/uart.h ****             NONE,
  54:../../DaisyExamples/libDaisy//src/per/uart.h ****             EVEN,
  55:../../DaisyExamples/libDaisy//src/per/uart.h ****             ODD,
  56:../../DaisyExamples/libDaisy//src/per/uart.h ****         };
  57:../../DaisyExamples/libDaisy//src/per/uart.h **** 
  58:../../DaisyExamples/libDaisy//src/per/uart.h ****         enum class Mode
  59:../../DaisyExamples/libDaisy//src/per/uart.h ****         {
  60:../../DaisyExamples/libDaisy//src/per/uart.h ****             RX,
  61:../../DaisyExamples/libDaisy//src/per/uart.h ****             TX,
  62:../../DaisyExamples/libDaisy//src/per/uart.h ****             TX_RX,
  63:../../DaisyExamples/libDaisy//src/per/uart.h ****         };
  64:../../DaisyExamples/libDaisy//src/per/uart.h **** 
  65:../../DaisyExamples/libDaisy//src/per/uart.h ****         enum class WordLength
  66:../../DaisyExamples/libDaisy//src/per/uart.h ****         {
  67:../../DaisyExamples/libDaisy//src/per/uart.h ****             BITS_7,
  68:../../DaisyExamples/libDaisy//src/per/uart.h ****             BITS_8,
  69:../../DaisyExamples/libDaisy//src/per/uart.h ****             BITS_9,
  70:../../DaisyExamples/libDaisy//src/per/uart.h ****         };
  71:../../DaisyExamples/libDaisy//src/per/uart.h **** 
  72:../../DaisyExamples/libDaisy//src/per/uart.h ****         struct
  73:../../DaisyExamples/libDaisy//src/per/uart.h ****         {
  74:../../DaisyExamples/libDaisy//src/per/uart.h ****             dsy_gpio_pin tx; /**< & */
  75:../../DaisyExamples/libDaisy//src/per/uart.h ****             dsy_gpio_pin rx; /**< & */
  76:../../DaisyExamples/libDaisy//src/per/uart.h ****         } pin_config;        /**< & */
  77:../../DaisyExamples/libDaisy//src/per/uart.h **** 
  78:../../DaisyExamples/libDaisy//src/per/uart.h ****         Config()
  79:../../DaisyExamples/libDaisy//src/per/uart.h ****         {
  80:../../DaisyExamples/libDaisy//src/per/uart.h ****             // user must init periph, pin_config, and mode
  81:../../DaisyExamples/libDaisy//src/per/uart.h ****             stopbits   = StopBits::BITS_1;
  82:../../DaisyExamples/libDaisy//src/per/uart.h ****             parity     = Parity::NONE;
  83:../../DaisyExamples/libDaisy//src/per/uart.h ****             wordlength = WordLength::BITS_8;
  84:../../DaisyExamples/libDaisy//src/per/uart.h ****             baudrate   = 4800;
  85:../../DaisyExamples/libDaisy//src/per/uart.h ****             // baudrate   = 31250;
  86:../../DaisyExamples/libDaisy//src/per/uart.h ****         }
  87:../../DaisyExamples/libDaisy//src/per/uart.h **** 
  88:../../DaisyExamples/libDaisy//src/per/uart.h ****         Peripheral periph;
  89:../../DaisyExamples/libDaisy//src/per/uart.h ****         StopBits   stopbits;
  90:../../DaisyExamples/libDaisy//src/per/uart.h ****         Parity     parity;
  91:../../DaisyExamples/libDaisy//src/per/uart.h ****         Mode       mode;
  92:../../DaisyExamples/libDaisy//src/per/uart.h ****         WordLength wordlength;
  93:../../DaisyExamples/libDaisy//src/per/uart.h ****         uint32_t   baudrate;
  94:../../DaisyExamples/libDaisy//src/per/uart.h ****     };
  95:../../DaisyExamples/libDaisy//src/per/uart.h **** 
  96:../../DaisyExamples/libDaisy//src/per/uart.h **** 
  97:../../DaisyExamples/libDaisy//src/per/uart.h ****     UartHandler() : pimpl_(nullptr) {}
 2384              		.loc 22 97 35 view .LVU618
 2385 0014 C3F82C22 		str	r2, [r3, #556]
 2386              	.LBE755:
 2387              	.LBE754:
 2388              	.LBE753:
 2389              	.LBE752:
ARM GAS  C:\Users\Estudi\AppData\Local\Temp\ccjMGKtz.s 			page 75


 2390              	.LBE767:
 2391              	.LBE773:
 2392              	.LBE780:
 2393              	.LBB781:
 2394              	.LBB724:
 2395              	.LBB720:
 2396              	.LBB718:
 2397              	.LBB719:
 2398              		.loc 21 84 33 view .LVU619
 2399 0018 0262     		str	r2, [r0, #32]
 2400              	.LVL127:
 2401              		.loc 21 84 33 view .LVU620
 2402              	.LBE719:
 2403              	.LBE718:
 2404              	.LBE720:
 2405              	.LBB721:
 2406              	.LBI721:
  40:../../DaisyExamples/libDaisy//src/hid/usb.h **** 
 2407              		.loc 11 40 5 is_stmt 1 view .LVU621
  40:../../DaisyExamples/libDaisy//src/hid/usb.h **** 
 2408              		.loc 11 40 5 is_stmt 0 view .LVU622
 2409              	.LBE721:
 2410              	.LBB722:
 2411              	.LBI722:
  77:../../DaisyExamples/libDaisy//src/sys/system.h ****     ~System() {}
 2412              		.loc 10 77 5 is_stmt 1 view .LVU623
  77:../../DaisyExamples/libDaisy//src/sys/system.h ****     ~System() {}
 2413              		.loc 10 77 5 is_stmt 0 view .LVU624
 2414              	.LBE722:
 2415              	.LBE724:
 2416              	.LBE781:
 2417              	.LBB782:
 2418              	.LBI782:
  20:../../DaisyExamples/libDaisy//src/hid/encoder.h ****     ~Encoder() {}
 2419              		.loc 8 20 5 is_stmt 1 view .LVU625
 2420              	.LBB783:
 2421              	.LBB784:
 2422              	.LBI784:
  41:../../DaisyExamples/libDaisy//src/hid/switch.h ****     ~Switch() {}
 2423              		.loc 7 41 5 view .LVU626
  41:../../DaisyExamples/libDaisy//src/hid/switch.h ****     ~Switch() {}
 2424              		.loc 7 41 5 is_stmt 0 view .LVU627
 2425              	.LBE784:
 2426              	.LBE783:
 2427              	.LBE782:
 2428              	.LBB785:
 2429              	.LBI785:
  21:../../DaisyExamples/libDaisy//src/hid/ctrl.h ****     /** destructor */
 2430              		.loc 2 21 5 is_stmt 1 view .LVU628
  21:../../DaisyExamples/libDaisy//src/hid/ctrl.h ****     /** destructor */
 2431              		.loc 2 21 5 is_stmt 0 view .LVU629
 2432              	.LBE785:
 2433              	.LBB786:
 2434              	.LBI786:
  21:../../DaisyExamples/libDaisy//src/hid/ctrl.h ****     /** destructor */
 2435              		.loc 2 21 5 is_stmt 1 view .LVU630
  21:../../DaisyExamples/libDaisy//src/hid/ctrl.h ****     /** destructor */
ARM GAS  C:\Users\Estudi\AppData\Local\Temp\ccjMGKtz.s 			page 76


 2436              		.loc 2 21 5 is_stmt 0 view .LVU631
 2437              	.LBE786:
 2438              	.LBB787:
 2439              	.LBI787:
  41:../../DaisyExamples/libDaisy//src/hid/switch.h ****     ~Switch() {}
 2440              		.loc 7 41 5 is_stmt 1 view .LVU632
  41:../../DaisyExamples/libDaisy//src/hid/switch.h ****     ~Switch() {}
 2441              		.loc 7 41 5 is_stmt 0 view .LVU633
 2442              	.LBE787:
 2443              	.LBB788:
 2444              	.LBI788:
  41:../../DaisyExamples/libDaisy//src/hid/switch.h ****     ~Switch() {}
 2445              		.loc 7 41 5 is_stmt 1 view .LVU634
  41:../../DaisyExamples/libDaisy//src/hid/switch.h ****     ~Switch() {}
 2446              		.loc 7 41 5 is_stmt 0 view .LVU635
 2447              	.LBE788:
 2448              	.LBB789:
 2449              	.LBI789:
  17:../../DaisyExamples/libDaisy//src/hid/rgb_led.h ****     ~RgbLed() {}
 2450              		.loc 5 17 5 is_stmt 1 view .LVU636
 2451              	.LBB790:
 2452              	.LBB791:
 2453              	.LBI791:
  24:../../DaisyExamples/libDaisy//src/hid/led.h ****     ~Led() {}
 2454              		.loc 6 24 5 view .LVU637
  24:../../DaisyExamples/libDaisy//src/hid/led.h ****     ~Led() {}
 2455              		.loc 6 24 5 is_stmt 0 view .LVU638
 2456              	.LBE791:
 2457              	.LBB792:
 2458              	.LBI792:
  24:../../DaisyExamples/libDaisy//src/hid/led.h ****     ~Led() {}
 2459              		.loc 6 24 5 is_stmt 1 view .LVU639
  24:../../DaisyExamples/libDaisy//src/hid/led.h ****     ~Led() {}
 2460              		.loc 6 24 5 is_stmt 0 view .LVU640
 2461              	.LBE792:
 2462              	.LBB793:
 2463              	.LBI793:
  24:../../DaisyExamples/libDaisy//src/hid/led.h ****     ~Led() {}
 2464              		.loc 6 24 5 is_stmt 1 view .LVU641
  24:../../DaisyExamples/libDaisy//src/hid/led.h ****     ~Led() {}
 2465              		.loc 6 24 5 is_stmt 0 view .LVU642
 2466              	.LBE793:
 2467              	.LBE790:
 2468              	.LBE789:
 2469              	.LBB794:
 2470              	.LBI794:
  17:../../DaisyExamples/libDaisy//src/hid/rgb_led.h ****     ~RgbLed() {}
 2471              		.loc 5 17 5 is_stmt 1 view .LVU643
 2472              	.LBB795:
 2473              	.LBB796:
 2474              	.LBI796:
  24:../../DaisyExamples/libDaisy//src/hid/led.h ****     ~Led() {}
 2475              		.loc 6 24 5 view .LVU644
  24:../../DaisyExamples/libDaisy//src/hid/led.h ****     ~Led() {}
 2476              		.loc 6 24 5 is_stmt 0 view .LVU645
 2477              	.LBE796:
 2478              	.LBB797:
ARM GAS  C:\Users\Estudi\AppData\Local\Temp\ccjMGKtz.s 			page 77


 2479              	.LBI797:
  24:../../DaisyExamples/libDaisy//src/hid/led.h ****     ~Led() {}
 2480              		.loc 6 24 5 is_stmt 1 view .LVU646
  24:../../DaisyExamples/libDaisy//src/hid/led.h ****     ~Led() {}
 2481              		.loc 6 24 5 is_stmt 0 view .LVU647
 2482              	.LBE797:
 2483              	.LBB798:
 2484              	.LBI798:
  24:../../DaisyExamples/libDaisy//src/hid/led.h ****     ~Led() {}
 2485              		.loc 6 24 5 is_stmt 1 view .LVU648
  24:../../DaisyExamples/libDaisy//src/hid/led.h ****     ~Led() {}
 2486              		.loc 6 24 5 is_stmt 0 view .LVU649
 2487              	.LBE798:
 2488              	.LBE795:
 2489              	.LBE794:
 2490              	.LBB799:
 2491              	.LBI725:
  84:../../DaisyExamples/libDaisy//src/hid/midi.h ****     ~MidiHandler() {}
 2492              		.loc 4 84 5 is_stmt 1 view .LVU650
 2493              	.LBB774:
 2494              	.LBB768:
 2495              	.LBB757:
 2496              	.LBI757:
 2497              		.loc 22 97 5 view .LVU651
 2498              	.LBB758:
 2499              	.LBB759:
 2500              		.loc 22 97 35 is_stmt 0 view .LVU652
 2501 001a C0F87C21 		str	r2, [r0, #380]
 2502              	.LVL128:
 2503              		.loc 22 97 35 view .LVU653
 2504              	.LBE759:
 2505              	.LBE758:
 2506              	.LBE757:
 2507              	.LBB760:
 2508              	.LBI760:
 2509              		.file 23 "../../DaisyExamples/libDaisy//src/util/ringbuffer.h"
   1:../../DaisyExamples/libDaisy//src/util/ringbuffer.h **** #pragma once
   2:../../DaisyExamples/libDaisy//src/util/ringbuffer.h **** #ifndef DSY_RINGBUFFER_H
   3:../../DaisyExamples/libDaisy//src/util/ringbuffer.h **** #define DSY_RINGBUFFER_H
   4:../../DaisyExamples/libDaisy//src/util/ringbuffer.h **** 
   5:../../DaisyExamples/libDaisy//src/util/ringbuffer.h **** #include <algorithm>
   6:../../DaisyExamples/libDaisy//src/util/ringbuffer.h **** 
   7:../../DaisyExamples/libDaisy//src/util/ringbuffer.h **** namespace daisy
   8:../../DaisyExamples/libDaisy//src/util/ringbuffer.h **** {
   9:../../DaisyExamples/libDaisy//src/util/ringbuffer.h **** /** @addtogroup utility
  10:../../DaisyExamples/libDaisy//src/util/ringbuffer.h ****     @{
  11:../../DaisyExamples/libDaisy//src/util/ringbuffer.h **** */
  12:../../DaisyExamples/libDaisy//src/util/ringbuffer.h **** 
  13:../../DaisyExamples/libDaisy//src/util/ringbuffer.h **** /**
  14:../../DaisyExamples/libDaisy//src/util/ringbuffer.h **** Utility Ring Buffer \n 
  15:../../DaisyExamples/libDaisy//src/util/ringbuffer.h **** imported from pichenettes/stmlib
  16:../../DaisyExamples/libDaisy//src/util/ringbuffer.h **** */
  17:../../DaisyExamples/libDaisy//src/util/ringbuffer.h **** template <typename T, size_t size>
  18:../../DaisyExamples/libDaisy//src/util/ringbuffer.h **** class RingBuffer
  19:../../DaisyExamples/libDaisy//src/util/ringbuffer.h **** {
  20:../../DaisyExamples/libDaisy//src/util/ringbuffer.h ****   public:
  21:../../DaisyExamples/libDaisy//src/util/ringbuffer.h ****     RingBuffer() {}
ARM GAS  C:\Users\Estudi\AppData\Local\Temp\ccjMGKtz.s 			page 78


 2510              		.loc 23 21 5 is_stmt 1 view .LVU654
 2511              		.loc 23 21 5 is_stmt 0 view .LVU655
 2512              	.LBE760:
 2513              	.LBB761:
 2514              	.LBI728:
  86:../../DaisyExamples/libDaisy//src/hid/midi.h **** 
  87:../../DaisyExamples/libDaisy//src/hid/midi.h ****     struct Config
 2515              		.loc 4 87 12 is_stmt 1 view .LVU656
 2516              	.LBB746:
 2517              	.LBI729:
  34:../../DaisyExamples/libDaisy//src/hid/midi.h ****         {
 2518              		.loc 4 34 9 view .LVU657
 2519              	.LBB740:
 2520              	.LBB734:
  36:../../DaisyExamples/libDaisy//src/hid/midi.h ****             rx     = {DSY_GPIOB, 7};
